(dp0
(cnumpy.core.multiarray
scalar
p1
(cnumpy
dtype
p2
(S'f4'
p3
I0
I1
tp4
Rp5
(I3
S'<'
p6
NNNI-1
I-1
I0
tp7
bS'\x07\x1e\x82:'
p8
tp9
Rp10
g1
(g5
S'\\l\x98\xba'
p11
tp12
Rp13
g1
(g5
S'\x04\x8d!:'
p14
tp15
Rp16
g1
(g5
S'\xc6DJ6'
p17
tp18
Rp19
g1
(g5
S'\xdb}\xb09'
p20
tp21
Rp22
g1
(g5
S'\\`\xac\xb9'
p23
tp24
Rp25
g1
(g5
S'\xd3\x9e\xf89'
p26
tp27
Rp28
g1
(g5
S'\x9d.\xdb\xb9'
p29
tp30
Rp31
g1
(g5
S'\xcb\xd8\t;'
p32
tp33
Rp34
g1
(g5
S'\x89!E:'
p35
tp36
Rp37
g1
(g5
S'\x18e\x05\xbb'
p38
tp39
Rp40
g1
(g5
S"\x1e\x16'9"
p41
tp42
Rp43
g1
(g5
S'\xf3`:\xba'
p44
tp45
Rp46
g1
(g5
S'\xbd\xfec:'
p47
tp48
Rp49
g1
(g5
S'\x9ff\xe1\xb9'
p50
tp51
Rp52
g1
(g5
S'58\xb7:'
p53
tp54
Rp55
g1
(g5
S'Q\xdfx:'
p56
tp57
Rp58
g1
(g5
S'/,\xe4:'
p59
tp60
Rp61
g1
(g5
S'\xb3\xb4\xc9:'
p62
tp63
Rp64
g1
(g5
S'Y\xb2\x82\xb9'
p65
tp66
Rp67
g1
(g5
S'Q\xc9\x9c9'
p68
tp69
Rp70
g1
(g5
S'\x88\xd9\x8f:'
p71
tp72
Rp73
g1
(g5
S'B\xcd\x8e\xba'
p74
tp75
Rp76
g1
(g5
S'\xccqC:'
p77
tp78
Rp79
g1
(g5
S'\xdf3\xd4\xb9'
p80
tp81
Rp82
g1
(g5
S'\xdc!@\xba'
p83
tp84
Rp85
g1
(g5
S'\n\x92\xa59'
p86
tp87
Rp88
g1
(g5
S'\x17\xd9Q9'
p89
tp90
Rp91
g1
(g5
S'jF\xaf:'
p92
tp93
Rp94
g1
(g5
S'\x80\x04\xb2:'
p95
tp96
Rp97
g1
(g5
S'\xb4W\xd3\xba'
p98
tp99
Rp100
g1
(g5
S'\xea\xea\x1a\xbb'
p101
tp102
Rp103
g1
(g5
S'\x1f\x9c\x1c:'
p104
tp105
Rp106
g1
(g5
S'\xa95\x92\xba'
p107
tp108
Rp109
g1
(g5
S'\xd4+(\xbb'
p110
tp111
Rp112
g1
(g5
S'#e\x9f8'
p113
tp114
Rp115
g1
(g5
S'\xe3e\xd1\xba'
p116
tp117
Rp118
g1
(g5
S'\x00\xe7\x0e\xba'
p119
tp120
Rp121
g1
(g5
S'\xefN\x11;'
p122
tp123
Rp124
g1
(g5
S'\t\xc4\x82:'
p125
tp126
Rp127
g1
(g5
S'\xf9]\x8c9'
p128
tp129
Rp130
g1
(g5
S'\xb9h\xdb8'
p131
tp132
Rp133
g1
(g5
S'\xbc\x05\x8a\xba'
p134
tp135
Rp136
g1
(g5
S'\r\xa2\x8c8'
p137
tp138
Rp139
g1
(g5
S'9\xdc\xa39'
p140
tp141
Rp142
g1
(g5
S'\x9f\xa5%\xba'
p143
tp144
Rp145
g1
(g5
S'\x1eP\x8b:'
p146
tp147
Rp148
g1
(g5
S'd\xbf\xf1:'
p149
tp150
Rp151
g1
(g5
S'@\xca$\xb9'
p152
tp153
Rp154
g1
(g5
S'e\x10\x95:'
p155
tp156
Rp157
g1
(g5
S'1\xd6\x7f\xba'
p158
tp159
Rp160
g1
(g5
S'\xe6S\xb89'
p161
tp162
Rp163
g1
(g5
S'\x80\x1d\xfe8'
p164
tp165
Rp166
g1
(g5
S'<v\x909'
p167
tp168
Rp169
g1
(g5
S"d'j\xba"
p170
tp171
Rp172
g1
(g5
S'\x81\xc1!\xba'
p173
tp174
Rp175
g1
(g5
S'Ml\xba\xb9'
p176
tp177
Rp178
g1
(g5
S'J\xb6\x9e\xb9'
p179
tp180
Rp181
g1
(g5
S'\x17\x01l:'
p182
tp183
Rp184
g1
(g5
S'm0\xe9\xb9'
p185
tp186
Rp187
g1
(g5
S'\xf6\xdc\xb7\xb9'
p188
tp189
Rp190
g1
(g5
S'\t\xd0\xe28'
p191
tp192
Rp193
g1
(g5
S'\xe6p\xbb\xba'
p194
tp195
Rp196
g1
(g5
S'7\x06\xe1\xba'
p197
tp198
Rp199
g1
(g5
S'\xf9\xd9:\xba'
p200
tp201
Rp202
g1
(g5
S'\xc0\xa0t\xb8'
p203
tp204
Rp205
g1
(g5
S'1$\x17\xba'
p206
tp207
Rp208
g1
(g5
S'\xbc\xb8\xaf:'
p209
tp210
Rp211
g1
(g5
S'\xf1AL9'
p212
tp213
Rp214
g1
(g5
S'[-\xaa\xb9'
p215
tp216
Rp217
g1
(g5
S'\xda\xf7\xc8\xb9'
p218
tp219
Rp220
g1
(g5
S'\x0c2\xc1\xb7'
p221
tp222
Rp223
g1
(g5
S'\x994\xc5\xba'
p224
tp225
Rp226
g1
(g5
S'}s\x1a\xb9'
p227
tp228
Rp229
g1
(g5
S'\x04\x00\x81\xb9'
p230
tp231
Rp232
g1
(g5
S'\xbf\xd5{:'
p233
tp234
Rp235
g1
(g5
S'\xe0\x80b9'
p236
tp237
Rp238
g1
(g5
S'\x9c\xce\x9f:'
p239
tp240
Rp241
g1
(g5
S'\xd76+:'
p242
tp243
Rp244
g1
(g5
S':u4:'
p245
tp246
Rp247
g1
(g5
S'\x1d\xb1~:'
p248
tp249
Rp250
g1
(g5
S'6\x91\xbd:'
p251
tp252
Rp253
g1
(g5
S'Y\xedS:'
p254
tp255
Rp256
g1
(g5
S' \xdc\xf9\xba'
p257
tp258
Rp259
g1
(g5
S'G\xe1\xa5:'
p260
tp261
Rp262
g1
(g5
S'\xb4+\xa59'
p263
tp264
Rp265
g1
(g5
S'\xc1\x93\x95\xba'
p266
tp267
Rp268
g1
(g5
S'\xf7\xac\xeb9'
p269
tp270
Rp271
g1
(g5
S'C4\n;'
p272
tp273
Rp274
g1
(g5
S'\xe3\x0e\xc99'
p275
tp276
Rp277
g1
(g5
S'\xca$\xc8\xba'
p278
tp279
Rp280
g1
(g5
S'\x96\x19\xa7:'
p281
tp282
Rp283
g1
(g5
S'\x9cO\x86:'
p284
tp285
Rp286
g1
(g5
S'v;\x97:'
p287
tp288
Rp289
g1
(g5
S'\x8cm:7'
p290
tp291
Rp292
g1
(g5
S'\xb4\xf0\xad\xba'
p293
tp294
Rp295
g1
(g5
S'@9\xff8'
p296
tp297
Rp298
g1
(g5
S':\x91(:'
p299
tp300
Rp301
g1
(g5
S'\xd92\x8f8'
p302
tp303
Rp304
g1
(g5
S"\x87\x86':"
p305
tp306
Rp307
tp308
S'What room am I in?'
p309
s(g1
(g5
S'Pw\x98:'
p310
tp311
Rp312
g1
(g5
S'9\xdb\xbb\xba'
p313
tp314
Rp315
g1
(g5
S'\xa2?\xfc9'
p316
tp317
Rp318
g1
(g5
S'B\xbc\t\xb9'
p319
tp320
Rp321
g1
(g5
S'\x0c\xe2\n\xba'
p322
tp323
Rp324
g1
(g5
S'\x12\xba\xc8:'
p325
tp326
Rp327
g1
(g5
S'@\xb1u:'
p328
tp329
Rp330
g1
(g5
S'\xc6C`\xba'
p331
tp332
Rp333
g1
(g5
S'.\xf78:'
p334
tp335
Rp336
g1
(g5
S'T5\x94\xba'
p337
tp338
Rp339
g1
(g5
S'24\xd4\xba'
p340
tp341
Rp342
g1
(g5
S'N\x1f\xd6\xb9'
p343
tp344
Rp345
g1
(g5
S'h\x86\xdc\xba'
p346
tp347
Rp348
g1
(g5
S'>\xe38:'
p349
tp350
Rp351
g1
(g5
S'X\x82\xbb\xba'
p352
tp353
Rp354
g1
(g5
S'c\x9e\xba:'
p355
tp356
Rp357
g1
(g5
S'C\x03\xb3:'
p358
tp359
Rp360
g1
(g5
S'l\x10\x15:'
p361
tp362
Rp363
g1
(g5
S'\x80\xe4B7'
p364
tp365
Rp366
g1
(g5
S'FGW\xba'
p367
tp368
Rp369
g1
(g5
S'\xb0\xd3\x899'
p370
tp371
Rp372
g1
(g5
S'e<\xc39'
p373
tp374
Rp375
g1
(g5
S'\x19H\x85\xba'
p376
tp377
Rp378
g1
(g5
S'\x12\xc5<:'
p379
tp380
Rp381
g1
(g5
S"'\x8b-:"
p382
tp383
Rp384
g1
(g5
S"r,'7"
p385
tp386
Rp387
g1
(g5
S'\\\x13\xc48'
p388
tp389
Rp390
g1
(g5
S'\xb9\xd7\xce:'
p391
tp392
Rp393
g1
(g5
S'\x00a\x869'
p394
tp395
Rp396
g1
(g5
S'#bH:'
p397
tp398
Rp399
g1
(g5
S'\x90G\x01:'
p400
tp401
Rp402
g1
(g5
S'\xd7\xa6\xdc\xba'
p403
tp404
Rp405
g1
(g5
S'rcA:'
p406
tp407
Rp408
g1
(g5
S'u\xbbf\xba'
p409
tp410
Rp411
g1
(g5
S'\x12\xe3\\\xba'
p412
tp413
Rp414
g1
(g5
S'\xd0!\x18\xba'
p415
tp416
Rp417
g1
(g5
S'%\xa6c\xba'
p418
tp419
Rp420
g1
(g5
S'\xd0\xf5\xf9\xba'
p421
tp422
Rp423
g1
(g5
S'd\xabf;'
p424
tp425
Rp426
g1
(g5
S'\xbcf\x87:'
p427
tp428
Rp429
g1
(g5
S'i5&9'
p430
tp431
Rp432
g1
(g5
S'\xa4\xd4\r\xb7'
p433
tp434
Rp435
g1
(g5
S'\x0c\x01\xb09'
p436
tp437
Rp438
g1
(g5
S'VO\x84\xba'
p439
tp440
Rp441
g1
(g5
S'\xdc\x9e\x9b:'
p442
tp443
Rp444
g1
(g5
S'\x0c\xda*\xba'
p445
tp446
Rp447
g1
(g5
S'\x84\xe2 \xba'
p448
tp449
Rp450
g1
(g5
S'(\x9d\x1e:'
p451
tp452
Rp453
g1
(g5
S'\x9c\xd3e\xba'
p454
tp455
Rp456
g1
(g5
S'g\x90n\xb9'
p457
tp458
Rp459
g1
(g5
S'\xece\x1b\xba'
p460
tp461
Rp462
g1
(g5
S'W\x00#:'
p463
tp464
Rp465
g1
(g5
S'\x0bS\xad8'
p466
tp467
Rp468
g1
(g5
S'2\t\x87:'
p469
tp470
Rp471
g1
(g5
S'r\xd8\x108'
p472
tp473
Rp474
g1
(g5
S'\x9f\x1d\xbf\xba'
p475
tp476
Rp477
g1
(g5
S'\x04`[:'
p478
tp479
Rp480
g1
(g5
S',\x12\xc4:'
p481
tp482
Rp483
g1
(g5
S'\xa2\x10\xbb:'
p484
tp485
Rp486
g1
(g5
S'$\x9d0\xba'
p487
tp488
Rp489
g1
(g5
S'l\x80\x95:'
p490
tp491
Rp492
g1
(g5
S'\x88@\xa3\xb8'
p493
tp494
Rp495
g1
(g5
S'\x01i\xb9\xb9'
p496
tp497
Rp498
g1
(g5
S'\x8a\xdd\xbc\xba'
p499
tp500
Rp501
g1
(g5
S'+\xb3\x879'
p502
tp503
Rp504
g1
(g5
S'5!L\xba'
p505
tp506
Rp507
g1
(g5
S'i\xfc :'
p508
tp509
Rp510
g1
(g5
S'\x99.6:'
p511
tp512
Rp513
g1
(g5
S'<v\xb28'
p514
tp515
Rp516
g1
(g5
S'\x14\x12\xea\xb8'
p517
tp518
Rp519
g1
(g5
S'\x8b\x06\xf1\xb9'
p520
tp521
Rp522
g1
(g5
S'\x90^\x1b\xb9'
p523
tp524
Rp525
g1
(g5
S'bpC:'
p526
tp527
Rp528
g1
(g5
S'\x90\x89y\xba'
p529
tp530
Rp531
g1
(g5
S'\xaee|9'
p532
tp533
Rp534
g1
(g5
S'N\x8a7\xba'
p535
tp536
Rp537
g1
(g5
S'\xfe\xa8\xce\xb9'
p538
tp539
Rp540
g1
(g5
S'\x9c\xea\xc3:'
p541
tp542
Rp543
g1
(g5
S'\xdc`\x8d\xb9'
p544
tp545
Rp546
g1
(g5
S'i\xc6l:'
p547
tp548
Rp549
g1
(g5
S'TJ\xdd9'
p550
tp551
Rp552
g1
(g5
S'\x15#\xd68'
p553
tp554
Rp555
g1
(g5
S'\xa2\xb5j:'
p556
tp557
Rp558
g1
(g5
S'\x1fI5\xba'
p559
tp560
Rp561
g1
(g5
S'\xe4\xd3*7'
p562
tp563
Rp564
g1
(g5
S'\xa7\x18g:'
p565
tp566
Rp567
g1
(g5
S'\xbd@\x93\xba'
p568
tp569
Rp570
g1
(g5
S'\xc5\xf0i:'
p571
tp572
Rp573
g1
(g5
S'\x19S\x9e:'
p574
tp575
Rp576
g1
(g5
S'pp\xd4\xba'
p577
tp578
Rp579
g1
(g5
S'\x0c\xb1\xcf\xba'
p580
tp581
Rp582
g1
(g5
S'\xfcQJ:'
p583
tp584
Rp585
g1
(g5
S'o\xcb>9'
p586
tp587
Rp588
g1
(g5
S'?c\x94:'
p589
tp590
Rp591
g1
(g5
S'\x8b\xec\xb4\xb9'
p592
tp593
Rp594
g1
(g5
S'\x1c\xa2\xfd\xb8'
p595
tp596
Rp597
g1
(g5
S'\x16\xe8\x13\xb9'
p598
tp599
Rp600
g1
(g5
S'\xa2\xce\xa0:'
p601
tp602
Rp603
g1
(g5
S'\xf4\xe3":'
p604
tp605
Rp606
g1
(g5
S'\xe9\xa9Z:'
p607
tp608
Rp609
tp610
S'Stop moving'
p611
s(g1
(g5
S'&\xb8O9'
p612
tp613
Rp614
g1
(g5
S'v\x0c\xd6\xba'
p615
tp616
Rp617
g1
(g5
S'\x7f\x18\xc3:'
p618
tp619
Rp620
g1
(g5
S'([k\xba'
p621
tp622
Rp623
g1
(g5
S'\x1e\x86\x00:'
p624
tp625
Rp626
g1
(g5
S'\x13~\xe0:'
p627
tp628
Rp629
g1
(g5
S'\xb6\x9b\xa1:'
p630
tp631
Rp632
g1
(g5
S'\xe0\xb3f\xba'
p633
tp634
Rp635
g1
(g5
S'@-\xd7:'
p636
tp637
Rp638
g1
(g5
S'#d}\xb9'
p639
tp640
Rp641
g1
(g5
S'\x1bW-\xbb'
p642
tp643
Rp644
g1
(g5
S'k\xd7:9'
p645
tp646
Rp647
g1
(g5
S'[X\xa3\xba'
p648
tp649
Rp650
g1
(g5
S'\xe3\xc2\x999'
p651
tp652
Rp653
g1
(g5
S'=\xf3L\xba'
p654
tp655
Rp656
g1
(g5
S'\xef\x04\x12;'
p657
tp658
Rp659
g1
(g5
S'\x87+\x1b:'
p660
tp661
Rp662
g1
(g5
S'\xc6P\x9e:'
p663
tp664
Rp665
g1
(g5
S'\x83\xe6\xc6:'
p666
tp667
Rp668
g1
(g5
S'\xbc\xb6\xc6:'
p669
tp670
Rp671
g1
(g5
S'\x9an\xcf9'
p672
tp673
Rp674
g1
(g5
S'\x8a\x83\x1e:'
p675
tp676
Rp677
g1
(g5
S'!x\x97\xba'
p678
tp679
Rp680
g1
(g5
S'\x00d\xea\xb8'
p681
tp682
Rp683
g1
(g5
S'\xca\xf5\xe9\xb9'
p684
tp685
Rp686
g1
(g5
S'&b\x86:'
p687
tp688
Rp689
g1
(g5
S'U\xf7\x14\xba'
p690
tp691
Rp692
g1
(g5
S'%\x0cL:'
p693
tp694
Rp695
g1
(g5
S'\xc2P3:'
p696
tp697
Rp698
g1
(g5
S'\x93\xc6^:'
p699
tp700
Rp701
g1
(g5
S':P0\xba'
p702
tp703
Rp704
g1
(g5
S'\x06\xeb\xf1\xba'
p705
tp706
Rp707
g1
(g5
S'\xa2V\x8d\xba'
p708
tp709
Rp710
g1
(g5
S'\x1a\xc3\xf8\xb7'
p711
tp712
Rp713
g1
(g5
S'A\xe9%:'
p714
tp715
Rp716
g1
(g5
S'\xe8\xf4*:'
p717
tp718
Rp719
g1
(g5
S'\xca\x98\xfb\xba'
p720
tp721
Rp722
g1
(g5
S'HN\xdb\xba'
p723
tp724
Rp725
g1
(g5
S'\xe1\xf4\x89;'
p726
tp727
Rp728
g1
(g5
S'\xc6\xeca:'
p729
tp730
Rp731
g1
(g5
S'.\xb4K:'
p732
tp733
Rp734
g1
(g5
S'\x1a\x9aG9'
p735
tp736
Rp737
g1
(g5
S'\x92\x83\x8c\xb8'
p738
tp739
Rp740
g1
(g5
S'\xcc\x91\x84\xba'
p741
tp742
Rp743
g1
(g5
S'\x88\xfa\xf69'
p744
tp745
Rp746
g1
(g5
S'E~\xab\xba'
p747
tp748
Rp749
g1
(g5
S'\xcd.\xf58'
p750
tp751
Rp752
g1
(g5
S'K\xf4\xab9'
p753
tp754
Rp755
g1
(g5
S'v\x91@\xba'
p756
tp757
Rp758
g1
(g5
S'\xf3*\x7f:'
p759
tp760
Rp761
g1
(g5
S'\xd5\x08\xc7\xba'
p762
tp763
Rp764
g1
(g5
S'\xcc\xa9\x89\xba'
p765
tp766
Rp767
g1
(g5
S"\x0f'\x19\xba"
p768
tp769
Rp770
g1
(g5
S'\xb4\xed\x86:'
p771
tp772
Rp773
g1
(g5
S'\xd5\xb0\x14\xba'
p774
tp775
Rp776
g1
(g5
S'n\xc6`\xba'
p777
tp778
Rp779
g1
(g5
S'}x\xa4:'
p780
tp781
Rp782
g1
(g5
S")v';"
p783
tp784
Rp785
g1
(g5
S'\x15u\xdf:'
p786
tp787
Rp788
g1
(g5
S'[\x1d\xad\xba'
p789
tp790
Rp791
g1
(g5
S'\x86D\xea:'
p792
tp793
Rp794
g1
(g5
S'y)B:'
p795
tp796
Rp797
g1
(g5
S'8\xafh\xba'
p798
tp799
Rp800
g1
(g5
S'\xbe\xcf):'
p801
tp802
Rp803
g1
(g5
S'c$\xb8\xb9'
p804
tp805
Rp806
g1
(g5
S'\xde<\xe5\xba'
p807
tp808
Rp809
g1
(g5
S'6E\xfa:'
p810
tp811
Rp812
g1
(g5
S'\xef\xd8\xbd:'
p813
tp814
Rp815
g1
(g5
S'-\xd3\x9c9'
p816
tp817
Rp818
g1
(g5
S'M\x15\x9b\xb8'
p819
tp820
Rp821
g1
(g5
S'\xcd\x19\xf9\xb7'
p822
tp823
Rp824
g1
(g5
S'\x9e~w:'
p825
tp826
Rp827
g1
(g5
S'f\x05$\xb7'
p828
tp829
Rp830
g1
(g5
S'\xfd\xf0T:'
p831
tp832
Rp833
g1
(g5
S'\x04w\x98:'
p834
tp835
Rp836
g1
(g5
S'X\xa2D\xba'
p837
tp838
Rp839
g1
(g5
S'\xc2M\xc5\xb9'
p840
tp841
Rp842
g1
(g5
S'&\x94\x13;'
p843
tp844
Rp845
g1
(g5
S'\x1aF&8'
p846
tp847
Rp848
g1
(g5
S'\x11(\xa4:'
p849
tp850
Rp851
g1
(g5
S'\x86\xe1\xc9\xb9'
p852
tp853
Rp854
g1
(g5
S'U\xf8P:'
p855
tp856
Rp857
g1
(g5
S'z\xa7A:'
p858
tp859
Rp860
g1
(g5
S'\x1a\x18\x02\xb8'
p861
tp862
Rp863
g1
(g5
S'0\x12L:'
p864
tp865
Rp866
g1
(g5
S']#\x1b;'
p867
tp868
Rp869
g1
(g5
S'sK\x80\xba'
p870
tp871
Rp872
g1
(g5
S'm}"8'
p873
tp874
Rp875
g1
(g5
S'\xd2_\x95:'
p876
tp877
Rp878
g1
(g5
S':\xeb\\:'
p879
tp880
Rp881
g1
(g5
S',\x186\xba'
p882
tp883
Rp884
g1
(g5
S'\xd5\x9e\x9b\xb9'
p885
tp886
Rp887
g1
(g5
S'\xce\xb7\xf0:'
p888
tp889
Rp890
g1
(g5
S'\x1a\x8dr;'
p891
tp892
Rp893
g1
(g5
S'\x03\xd3\x15\xba'
p894
tp895
Rp896
g1
(g5
S'?\x8cG\xba'
p897
tp898
Rp899
g1
(g5
S'\r\xb6\xc0\xb9'
p900
tp901
Rp902
g1
(g5
S'\xcdlD8'
p903
tp904
Rp905
g1
(g5
S'\x16\xf0w\xba'
p906
tp907
Rp908
g1
(g5
S'b28:'
p909
tp910
Rp911
tp912
S'Go Right'
p913
s(g1
(g5
S'\x80\x99\xaa8'
p914
tp915
Rp916
g1
(g5
S'\x04?u\xba'
p917
tp918
Rp919
g1
(g5
S'\xc4\x0e\x99:'
p920
tp921
Rp922
g1
(g5
S'\xd7\xa3t\xb9'
p923
tp924
Rp925
g1
(g5
S'g\x04\xc6\xba'
p926
tp927
Rp928
g1
(g5
S'\x8e\x84F9'
p929
tp930
Rp931
g1
(g5
S'\xf2\xec\xb79'
p932
tp933
Rp934
g1
(g5
S'd\xee\xf0\xb9'
p935
tp936
Rp937
g1
(g5
S'*\xbfR;'
p938
tp939
Rp940
g1
(g5
S'\xab\xa9\x17;'
p941
tp942
Rp943
g1
(g5
S'\x17-V9'
p944
tp945
Rp946
g1
(g5
S'\x97\x1a\xcb\xb8'
p947
tp948
Rp949
g1
(g5
S'\xfc\xa7\xd7\xba'
p950
tp951
Rp952
g1
(g5
S'I\xab\xc2:'
p953
tp954
Rp955
g1
(g5
S'\x9e\x82,\xba'
p956
tp957
Rp958
g1
(g5
S'c\xb7+;'
p959
tp960
Rp961
g1
(g5
S'\xbcU\xc78'
p962
tp963
Rp964
g1
(g5
S'x$\xdb:'
p965
tp966
Rp967
g1
(g5
S'\xd9$\xc3:'
p968
tp969
Rp970
g1
(g5
S'\xfc\x9bD\xb8'
p971
tp972
Rp973
g1
(g5
S'\x14\n\xfd9'
p974
tp975
Rp976
g1
(g5
S'4\xaf\x02:'
p977
tp978
Rp979
g1
(g5
S'\xe5\x02\xef\xb9'
p980
tp981
Rp982
g1
(g5
S',\x1b\xbb:'
p983
tp984
Rp985
g1
(g5
S'\x9a\x17\x86\xb9'
p986
tp987
Rp988
g1
(g5
S'<9\xd99'
p989
tp990
Rp991
g1
(g5
S'\xaa\xdc)\xba'
p992
tp993
Rp994
g1
(g5
S'\x1c\x05\xdd5'
p995
tp996
Rp997
g1
(g5
S'\x92\xe5\xec:'
p998
tp999
Rp1000
g1
(g5
S'\xe2\xba\xba:'
p1001
tp1002
Rp1003
g1
(g5
S'5\x19\x10\xbb'
p1004
tp1005
Rp1006
g1
(g5
S'\xfc\xed\xca\xba'
p1007
tp1008
Rp1009
g1
(g5
S'\xe4\xf1D8'
p1010
tp1011
Rp1012
g1
(g5
S'\\S\xc1\xb8'
p1013
tp1014
Rp1015
g1
(g5
S'\xe1\x82\xb9\xba'
p1016
tp1017
Rp1018
g1
(g5
S'\xbb\r\t\xba'
p1019
tp1020
Rp1021
g1
(g5
S'\xd6\xb6\x03\xbb'
p1022
tp1023
Rp1024
g1
(g5
S'\x1c"\x8d:'
p1025
tp1026
Rp1027
g1
(g5
S'm9\xcf9'
p1028
tp1029
Rp1030
g1
(g5
S'D\xf4\xf49'
p1031
tp1032
Rp1033
g1
(g5
S'\xce.\x02\xba'
p1034
tp1035
Rp1036
g1
(g5
S'\xfbc\xd99'
p1037
tp1038
Rp1039
g1
(g5
S'\xbe>}\xba'
p1040
tp1041
Rp1042
g1
(g5
S'\x18Y\xa8:'
p1043
tp1044
Rp1045
g1
(g5
S'\x87\x12$\xba'
p1046
tp1047
Rp1048
g1
(g5
S'\\\x99(\xba'
p1049
tp1050
Rp1051
g1
(g5
S'\xec\xfc\xf9\xb9'
p1052
tp1053
Rp1054
g1
(g5
S'8\xa6\xb3:'
p1055
tp1056
Rp1057
g1
(g5
S'\xc6&X9'
p1058
tp1059
Rp1060
g1
(g5
S'\x7f\xaa\x0b\xba'
p1061
tp1062
Rp1063
g1
(g5
S'\xc2\xeb\x9a\xb9'
p1064
tp1065
Rp1066
g1
(g5
S'\x90\xc2\xb4\xb9'
p1067
tp1068
Rp1069
g1
(g5
S'`\xe2\xef:'
p1070
tp1071
Rp1072
g1
(g5
S'\x0b\xe6\xbc9'
p1073
tp1074
Rp1075
g1
(g5
S'\xe54\x85:'
p1076
tp1077
Rp1078
g1
(g5
S'Y\x0e\x10:'
p1079
tp1080
Rp1081
g1
(g5
S'\x97\xb2\x05:'
p1082
tp1083
Rp1084
g1
(g5
S'\x12\xcb\xf3\xba'
p1085
tp1086
Rp1087
g1
(g5
S'(|\xd3\xb9'
p1088
tp1089
Rp1090
g1
(g5
S'\xde\xde\xa5:'
p1091
tp1092
Rp1093
g1
(g5
S'\xb43\x1e:'
p1094
tp1095
Rp1096
g1
(g5
S'\x12o\x06\xb9'
p1097
tp1098
Rp1099
g1
(g5
S'\xc8g7\xba'
p1100
tp1101
Rp1102
g1
(g5
S'\x8c\x06\x00\xbb'
p1103
tp1104
Rp1105
g1
(g5
S'\x14/\x9e9'
p1106
tp1107
Rp1108
g1
(g5
S'\xc5MU:'
p1109
tp1110
Rp1111
g1
(g5
S'\xdc#:9'
p1112
tp1113
Rp1114
g1
(g5
S'9\x04t\xb9'
p1115
tp1116
Rp1117
g1
(g5
S'\x0c\xd8\xee9'
p1118
tp1119
Rp1120
g1
(g5
S'\xd5\xd2t\xba'
p1121
tp1122
Rp1123
g1
(g5
S'l4+\xba'
p1124
tp1125
Rp1126
g1
(g5
S'I|\x92\xba'
p1127
tp1128
Rp1129
g1
(g5
S'\xf0\xb7\x98\xb9'
p1130
tp1131
Rp1132
g1
(g5
S'\x1c\xfe\x83\xba'
p1133
tp1134
Rp1135
g1
(g5
S'\x07\xd6\x1e\xba'
p1136
tp1137
Rp1138
g1
(g5
S'<r\xd0:'
p1139
tp1140
Rp1141
g1
(g5
S'5d\x9e:'
p1142
tp1143
Rp1144
g1
(g5
S'd\xc2\x06;'
p1145
tp1146
Rp1147
g1
(g5
S'\xff\xdf\xdd\xb9'
p1148
tp1149
Rp1150
g1
(g5
S'\x15G\xe4\xb9'
p1151
tp1152
Rp1153
g1
(g5
S'N\x8d\x9d\xba'
p1154
tp1155
Rp1156
g1
(g5
S'\xd0\xed\x9c9'
p1157
tp1158
Rp1159
g1
(g5
S'\xa7\xdb\x998'
p1160
tp1161
Rp1162
g1
(g5
S'\xb9\xb6\xa4\xba'
p1163
tp1164
Rp1165
g1
(g5
S'\xac\x86C9'
p1166
tp1167
Rp1168
g1
(g5
S'\\\xaf\x01\xb8'
p1169
tp1170
Rp1171
g1
(g5
S'\xc8\x80\x12\xbb'
p1172
tp1173
Rp1174
g1
(g5
S'\xac\xc4Y\xb9'
p1175
tp1176
Rp1177
g1
(g5
S'\x7f\xdb\xd69'
p1178
tp1179
Rp1180
g1
(g5
S'\x97\x90\xa5:'
p1181
tp1182
Rp1183
g1
(g5
S'6\x94\xb1\xb9'
p1184
tp1185
Rp1186
g1
(g5
S'u\xd2~:'
p1187
tp1188
Rp1189
g1
(g5
S'\x0b{\xec9'
p1190
tp1191
Rp1192
g1
(g5
S'\x0c\xfb\xc5:'
p1193
tp1194
Rp1195
g1
(g5
S'.\xd9\x1d\xbb'
p1196
tp1197
Rp1198
g1
(g5
S'\x0cY\x869'
p1199
tp1200
Rp1201
g1
(g5
S'U\x1f\xbf\xb7'
p1202
tp1203
Rp1204
g1
(g5
S'y\xe5\x84:'
p1205
tp1206
Rp1207
g1
(g5
S'\x8b7\xff\xb9'
p1208
tp1209
Rp1210
g1
(g5
S'\xa4\xed\xaf\xba'
p1211
tp1212
Rp1213
tp1214
S'Go backward'
p1215
s(g1
(g5
S'\x0e\xcc\xb8\xb9'
p1216
tp1217
Rp1218
g1
(g5
S'\xa5JF\xb9'
p1219
tp1220
Rp1221
g1
(g5
S'\xb9U\xeb:'
p1222
tp1223
Rp1224
g1
(g5
S'#)\x9c:'
p1225
tp1226
Rp1227
g1
(g5
S'Y_g9'
p1228
tp1229
Rp1230
g1
(g5
S'\r\xc8\x85\xba'
p1231
tp1232
Rp1233
g1
(g5
S'y\x86?\xb9'
p1234
tp1235
Rp1236
g1
(g5
S'\xf6\x19\xef8'
p1237
tp1238
Rp1239
g1
(g5
S'm\x86\xe4:'
p1240
tp1241
Rp1242
g1
(g5
S'RQ2:'
p1243
tp1244
Rp1245
g1
(g5
S'\x11]M\xba'
p1246
tp1247
Rp1248
g1
(g5
S'g\xbf\x1d\xba'
p1249
tp1250
Rp1251
g1
(g5
S'\x0f\x12<\xba'
p1252
tp1253
Rp1254
g1
(g5
S'\xabcy\xba'
p1255
tp1256
Rp1257
g1
(g5
S'o\x8d\x91\xba'
p1258
tp1259
Rp1260
g1
(g5
S'\x99>\x11;'
p1261
tp1262
Rp1263
g1
(g5
S'\x02\x1b7:'
p1264
tp1265
Rp1266
g1
(g5
S'F3\xd4:'
p1267
tp1268
Rp1269
g1
(g5
S'\xd9\xfa\x9e:'
p1270
tp1271
Rp1272
g1
(g5
S'\xf3\x1d\x90:'
p1273
tp1274
Rp1275
g1
(g5
S'\x89\x16\xd2\xb9'
p1276
tp1277
Rp1278
g1
(g5
S'R\x1f7\xb8'
p1279
tp1280
Rp1281
g1
(g5
S'"\xe3\x1a\xb9'
p1282
tp1283
Rp1284
g1
(g5
S'\x97\xa1f:'
p1285
tp1286
Rp1287
g1
(g5
S'~\xb0b\xba'
p1288
tp1289
Rp1290
g1
(g5
S'\xf6\xd3E:'
p1291
tp1292
Rp1293
g1
(g5
S'\x18\x0b\xca\xb9'
p1294
tp1295
Rp1296
g1
(g5
S'\xab\x89\x0f\xba'
p1297
tp1298
Rp1299
g1
(g5
S'\xe0\xc6\xfa:'
p1300
tp1301
Rp1302
g1
(g5
S'\xdb\x8f\x8f9'
p1303
tp1304
Rp1305
g1
(g5
S'\xd2\xd81\xba'
p1306
tp1307
Rp1308
g1
(g5
S'\xbf\x9a\x0c\xbb'
p1309
tp1310
Rp1311
g1
(g5
S'p\xf30:'
p1312
tp1313
Rp1314
g1
(g5
S'\x92\x88\xf58'
p1315
tp1316
Rp1317
g1
(g5
S'\xe6\xf7\xa1\xba'
p1318
tp1319
Rp1320
g1
(g5
S'v\tM\xb9'
p1321
tp1322
Rp1323
g1
(g5
S'\xa5\x97\xb5\xba'
p1324
tp1325
Rp1326
g1
(g5
S'\x05\xff\xcf\xb9'
p1327
tp1328
Rp1329
g1
(g5
S'\x1b\xf6Z:'
p1330
tp1331
Rp1332
g1
(g5
S'@\xa27\xb9'
p1333
tp1334
Rp1335
g1
(g5
S'\x1f\x9d\x86\xb9'
p1336
tp1337
Rp1338
g1
(g5
S'+-\xe3\xb9'
p1339
tp1340
Rp1341
g1
(g5
S'\x7f;\x0f\xb9'
p1342
tp1343
Rp1344
g1
(g5
S'\x00X(9'
p1345
tp1346
Rp1347
g1
(g5
S'\xb7\xad\x1d\xb9'
p1348
tp1349
Rp1350
g1
(g5
S'\xde4\x988'
p1351
tp1352
Rp1353
g1
(g5
S'g\n\x9d9'
p1354
tp1355
Rp1356
g1
(g5
S'\x86`\xac:'
p1357
tp1358
Rp1359
g1
(g5
S'\xf5A5:'
p1360
tp1361
Rp1362
g1
(g5
S'\x17\xf3\xfd9'
p1363
tp1364
Rp1365
g1
(g5
S'N\xa0\xcf\xb8'
p1366
tp1367
Rp1368
g1
(g5
S'\x00\x92\x97\xb6'
p1369
tp1370
Rp1371
g1
(g5
S'\x02\xd9I\xba'
p1372
tp1373
Rp1374
g1
(g5
S'\x05\x19\xa4\xb9'
p1375
tp1376
Rp1377
g1
(g5
S':T\x15\xba'
p1378
tp1379
Rp1380
g1
(g5
S'\x00X\x9d\xba'
p1381
tp1382
Rp1383
g1
(g5
S'\x16\xf0\xde:'
p1384
tp1385
Rp1386
g1
(g5
S'59e\xb9'
p1387
tp1388
Rp1389
g1
(g5
S'\xd7\xec\x1a:'
p1390
tp1391
Rp1392
g1
(g5
S'\xd0W\x9c\xba'
p1393
tp1394
Rp1395
g1
(g5
S"+'D\xba"
p1396
tp1397
Rp1398
g1
(g5
S'-j\xd9:'
p1399
tp1400
Rp1401
g1
(g5
S'\xe2\xdd+\xba'
p1402
tp1403
Rp1404
g1
(g5
S'\xb8l\x7f\xba'
p1405
tp1406
Rp1407
g1
(g5
S'\xfa\xd5\xe3\xb9'
p1408
tp1409
Rp1410
g1
(g5
S'\xc6\x1dN\xba'
p1411
tp1412
Rp1413
g1
(g5
S'%\xaf#:'
p1414
tp1415
Rp1416
g1
(g5
S'Rd<9'
p1417
tp1418
Rp1419
g1
(g5
S'%\x8cT8'
p1420
tp1421
Rp1422
g1
(g5
S'Rs\x85\xba'
p1423
tp1424
Rp1425
g1
(g5
S'\xb0=\xac8'
p1426
tp1427
Rp1428
g1
(g5
S'\xd8\x01S\xba'
p1429
tp1430
Rp1431
g1
(g5
S'\xebU\xcc9'
p1432
tp1433
Rp1434
g1
(g5
S'0Y\xcc:'
p1435
tp1436
Rp1437
g1
(g5
S'\x00\x00\x03\xb6'
p1438
tp1439
Rp1440
g1
(g5
S'\x9f\x9d\x8a:'
p1441
tp1442
Rp1443
g1
(g5
S'\xd2\xe1\xac\xb8'
p1444
tp1445
Rp1446
g1
(g5
S'\x89_\xda9'
p1447
tp1448
Rp1449
g1
(g5
S'*\x01\xbe:'
p1450
tp1451
Rp1452
g1
(g5
S'\xee\xed\x9d\xb9'
p1453
tp1454
Rp1455
g1
(g5
S'\xd5\x0e\x9e\xb9'
p1456
tp1457
Rp1458
g1
(g5
S'\x1d\xaf`:'
p1459
tp1460
Rp1461
g1
(g5
S'\xc7*\xc7\xba'
p1462
tp1463
Rp1464
g1
(g5
S'\xb2\xe8+\xba'
p1465
tp1466
Rp1467
g1
(g5
S'\x90>\xaf9'
p1468
tp1469
Rp1470
g1
(g5
S'\xde\x06\xf7\xb8'
p1471
tp1472
Rp1473
g1
(g5
S'\x00\xfe\xbf\xba'
p1474
tp1475
Rp1476
g1
(g5
S'V\xe2\x10\xba'
p1477
tp1478
Rp1479
g1
(g5
S'\xd4\xc7\x84:'
p1480
tp1481
Rp1482
g1
(g5
S'\xba\x9f\xdb:'
p1483
tp1484
Rp1485
g1
(g5
S'+{k\xb9'
p1486
tp1487
Rp1488
g1
(g5
S'7k69'
p1489
tp1490
Rp1491
g1
(g5
S'\xc6$\x07\xba'
p1492
tp1493
Rp1494
g1
(g5
S'3\xd4\x93:'
p1495
tp1496
Rp1497
g1
(g5
S'\x80B\xdf\xba'
p1498
tp1499
Rp1500
g1
(g5
S'\xbb\xf3\xaa\xba'
p1501
tp1502
Rp1503
g1
(g5
S'M\xa7\x18:'
p1504
tp1505
Rp1506
g1
(g5
S's\x81\xdd:'
p1507
tp1508
Rp1509
g1
(g5
S'\x10-Z\xb9'
p1510
tp1511
Rp1512
g1
(g5
S'\x891<9'
p1513
tp1514
Rp1515
tp1516
S'how are you today?'
p1517
s(g1
(g5
S'{\xe9\x13\xb9'
p1518
tp1519
Rp1520
g1
(g5
S'2\x93\xc2\xb8'
p1521
tp1522
Rp1523
g1
(g5
S'\xf4\x0f\r;'
p1524
tp1525
Rp1526
g1
(g5
S'9v":'
p1527
tp1528
Rp1529
g1
(g5
S'V3E\xba'
p1530
tp1531
Rp1532
g1
(g5
S'\xe9\xb1\xaa\xba'
p1533
tp1534
Rp1535
g1
(g5
S'\xae\xd6\x08\xba'
p1536
tp1537
Rp1538
g1
(g5
S'\xe4ss9'
p1539
tp1540
Rp1541
g1
(g5
S'k\x99\xef:'
p1542
tp1543
Rp1544
g1
(g5
S'\x03\x19\xc5:'
p1545
tp1546
Rp1547
g1
(g5
S'\x1a\xcc\r\xba'
p1548
tp1549
Rp1550
g1
(g5
S'\xa4\xb9O\xb9'
p1551
tp1552
Rp1553
g1
(g5
S'[UK\xba'
p1554
tp1555
Rp1556
g1
(g5
S'H\x04\t\xba'
p1557
tp1558
Rp1559
g1
(g5
S'\xc4bN\xba'
p1560
tp1561
Rp1562
g1
(g5
S'y\r\x1e;'
p1563
tp1564
Rp1565
g1
(g5
S'\xcb\x88-:'
p1566
tp1567
Rp1568
g1
(g5
S'\xe3(\xd4:'
p1569
tp1570
Rp1571
g1
(g5
S'o\x7f\x81:'
p1572
tp1573
Rp1574
g1
(g5
S'\x81j\x92:'
p1575
tp1576
Rp1577
g1
(g5
S'1F\x8c\xb9'
p1578
tp1579
Rp1580
g1
(g5
S'\xe75Q:'
p1581
tp1582
Rp1583
g1
(g5
S'\xe3\xf0\xde9'
p1584
tp1585
Rp1586
g1
(g5
S'it\xea:'
p1587
tp1588
Rp1589
g1
(g5
S'\xba\x92\x98\xba'
p1590
tp1591
Rp1592
g1
(g5
S'T\xe3\xd19'
p1593
tp1594
Rp1595
g1
(g5
S'\x161\x919'
p1596
tp1597
Rp1598
g1
(g5
S'\x92@!\xba'
p1599
tp1600
Rp1601
g1
(g5
S'k\xa6\xb1:'
p1602
tp1603
Rp1604
g1
(g5
S'\x0f\xbc\x14:'
p1605
tp1606
Rp1607
g1
(g5
S'\x86a%\xba'
p1608
tp1609
Rp1610
g1
(g5
S'\x0c\x94\xa6\xba'
p1611
tp1612
Rp1613
g1
(g5
S'\xcc\x8b3:'
p1614
tp1615
Rp1616
g1
(g5
S'\xa5\xd8\x879'
p1617
tp1618
Rp1619
g1
(g5
S')\xea\xd7\xba'
p1620
tp1621
Rp1622
g1
(g5
S'\xd3\x06\x89\xb9'
p1623
tp1624
Rp1625
g1
(g5
S'\\4B\xba'
p1626
tp1627
Rp1628
g1
(g5
S'\xf4\xbd>\xb9'
p1629
tp1630
Rp1631
g1
(g5
S'\x87\xd8\x11:'
p1632
tp1633
Rp1634
g1
(g5
S'.\xf2\xb7\xb9'
p1635
tp1636
Rp1637
g1
(g5
S'\xf5\xdec\xba'
p1638
tp1639
Rp1640
g1
(g5
S'm\xcd\x9f\xb9'
p1641
tp1642
Rp1643
g1
(g5
S'\xcc\xa2\x80\xba'
p1644
tp1645
Rp1646
g1
(g5
S'\xbd\xa4\x91:'
p1647
tp1648
Rp1649
g1
(g5
S'\x04\x9a\x0c\xba'
p1650
tp1651
Rp1652
g1
(g5
S'y\xfe\xe38'
p1653
tp1654
Rp1655
g1
(g5
S'\x1c\x8f\xbf8'
p1656
tp1657
Rp1658
g1
(g5
S'yy\xbb:'
p1659
tp1660
Rp1661
g1
(g5
S'\xe9\xb34:'
p1662
tp1663
Rp1664
g1
(g5
S'\nn\x0b:'
p1665
tp1666
Rp1667
g1
(g5
S'i~\x8d9'
p1668
tp1669
Rp1670
g1
(g5
S'W\xf6\x15\xba'
p1671
tp1672
Rp1673
g1
(g5
S'\xf0\x89\x08\xba'
p1674
tp1675
Rp1676
g1
(g5
S')Z\xd2\xba'
p1677
tp1678
Rp1679
g1
(g5
S'gQ\x179'
p1680
tp1681
Rp1682
g1
(g5
S'\xa7\xc2c\xba'
p1683
tp1684
Rp1685
g1
(g5
S'*W\xd2:'
p1686
tp1687
Rp1688
g1
(g5
S'U\rD\xba'
p1689
tp1690
Rp1691
g1
(g5
S'\xbe\x177:'
p1692
tp1693
Rp1694
g1
(g5
S'B\xdf\x93\xba'
p1695
tp1696
Rp1697
g1
(g5
S'\xb7\xaeB\xba'
p1698
tp1699
Rp1700
g1
(g5
S'\x8a3\x9e:'
p1701
tp1702
Rp1703
g1
(g5
S'\x15\xb3\xa3\xb7'
p1704
tp1705
Rp1706
g1
(g5
S'Qz\x81\xba'
p1707
tp1708
Rp1709
g1
(g5
S'.\xfe\x02\xb9'
p1710
tp1711
Rp1712
g1
(g5
S'~\x1c\x0c\xba'
p1713
tp1714
Rp1715
g1
(g5
S'\xb5\\\x02\xba'
p1716
tp1717
Rp1718
g1
(g5
S'\xe5\x91\x089'
p1719
tp1720
Rp1721
g1
(g5
S'\xbe\xcf\xb69'
p1722
tp1723
Rp1724
g1
(g5
S'\xc0\xccA\xba'
p1725
tp1726
Rp1727
g1
(g5
S';\xb6\x81\xb8'
p1728
tp1729
Rp1730
g1
(g5
S'\x86\xe8R\xba'
p1731
tp1732
Rp1733
g1
(g5
S'\x15h\xe09'
p1734
tp1735
Rp1736
g1
(g5
S'\x07\x19\x82:'
p1737
tp1738
Rp1739
g1
(g5
S'A`M\xb9'
p1740
tp1741
Rp1742
g1
(g5
S'\x1ek\xde:'
p1743
tp1744
Rp1745
g1
(g5
S'\xd2Qi9'
p1746
tp1747
Rp1748
g1
(g5
S'5\x8by9'
p1749
tp1750
Rp1751
g1
(g5
S'e\xd2,:'
p1752
tp1753
Rp1754
g1
(g5
S'\xe7\x1c\xa3\xb8'
p1755
tp1756
Rp1757
g1
(g5
S'\x04\xe6[\xba'
p1758
tp1759
Rp1760
g1
(g5
S'?\x90B:'
p1761
tp1762
Rp1763
g1
(g5
S'\xe48_\xba'
p1764
tp1765
Rp1766
g1
(g5
S'\xc9\r$\xba'
p1767
tp1768
Rp1769
g1
(g5
S'\x19\x98r\xb8'
p1770
tp1771
Rp1772
g1
(g5
S'\x01\xb6\xb5\xb9'
p1773
tp1774
Rp1775
g1
(g5
S'\xfb\xeb\xa2\xba'
p1776
tp1777
Rp1778
g1
(g5
S't\xe8;\xba'
p1779
tp1780
Rp1781
g1
(g5
S'H=\xa3:'
p1782
tp1783
Rp1784
g1
(g5
S'\xc1\xe2\xc6:'
p1785
tp1786
Rp1787
g1
(g5
S'5&\xaf\xb9'
p1788
tp1789
Rp1790
g1
(g5
S'\x12\x80\r:'
p1791
tp1792
Rp1793
g1
(g5
S'0\xee\x1f\xba'
p1794
tp1795
Rp1796
g1
(g5
S'$\xf4\x97:'
p1797
tp1798
Rp1799
g1
(g5
S'\xc7\xf8\x11\xbb'
p1800
tp1801
Rp1802
g1
(g5
S'r\xce\xb9\xba'
p1803
tp1804
Rp1805
g1
(g5
S'\x87%k:'
p1806
tp1807
Rp1808
g1
(g5
S',\x84\xfa:'
p1809
tp1810
Rp1811
g1
(g5
S'2\x00Y\xba'
p1812
tp1813
Rp1814
g1
(g5
S'\xaeAA\xba'
p1815
tp1816
Rp1817
tp1818
S'How are you today, Klauba?'
p1819
s(g1
(g5
S'L\x86\xc1\xb9'
p1820
tp1821
Rp1822
g1
(g5
S'$\x17\x12\xba'
p1823
tp1824
Rp1825
g1
(g5
S'8\xf3\x9a:'
p1826
tp1827
Rp1828
g1
(g5
S'O$79'
p1829
tp1830
Rp1831
g1
(g5
S'\xafU\x1a:'
p1832
tp1833
Rp1834
g1
(g5
S'J\xeb\xc4:'
p1835
tp1836
Rp1837
g1
(g5
S' \x93\xa4:'
p1838
tp1839
Rp1840
g1
(g5
S'`\x01\x81\xba'
p1841
tp1842
Rp1843
g1
(g5
S'#;\xaa:'
p1844
tp1845
Rp1846
g1
(g5
S'2\x18\x0b:'
p1847
tp1848
Rp1849
g1
(g5
S'*\xdc\xc8\xba'
p1850
tp1851
Rp1852
g1
(g5
S'&\xf0\x9b8'
p1853
tp1854
Rp1855
g1
(g5
S'\x1f\xc4C\xba'
p1856
tp1857
Rp1858
g1
(g5
S'\xb7\x8b\x94\xba'
p1859
tp1860
Rp1861
g1
(g5
S'\xea\xe9D9'
p1862
tp1863
Rp1864
g1
(g5
S'\x11\x03\x81:'
p1865
tp1866
Rp1867
g1
(g5
S'\xd2\xde\x969'
p1868
tp1869
Rp1870
g1
(g5
S'\xbe\xa8\xe59'
p1871
tp1872
Rp1873
g1
(g5
S'p\x0e>:'
p1874
tp1875
Rp1876
g1
(g5
S'\xa3\x88@:'
p1877
tp1878
Rp1879
g1
(g5
S'{\xfd4\xba'
p1880
tp1881
Rp1882
g1
(g5
S'\xecV9:'
p1883
tp1884
Rp1885
g1
(g5
S'0B\x84\xba'
p1886
tp1887
Rp1888
g1
(g5
S'ra\xf4\xb9'
p1889
tp1890
Rp1891
g1
(g5
S'6\xeb/:'
p1892
tp1893
Rp1894
g1
(g5
S'\x93\x13Y:'
p1895
tp1896
Rp1897
g1
(g5
S'IY\xe98'
p1898
tp1899
Rp1900
g1
(g5
S'\xbev\xd89'
p1901
tp1902
Rp1903
g1
(g5
S'h\xe0\xc8\xb9'
p1904
tp1905
Rp1906
g1
(g5
S'\x8e\xcb\x95:'
p1907
tp1908
Rp1909
g1
(g5
S'\xb6L\x84\xb9'
p1910
tp1911
Rp1912
g1
(g5
S'\xf0\x9f\x03\xbb'
p1913
tp1914
Rp1915
g1
(g5
S'(\xff5\xba'
p1916
tp1917
Rp1918
g1
(g5
S'\x92`\xc7\xb9'
p1919
tp1920
Rp1921
g1
(g5
S'#&T\xba'
p1922
tp1923
Rp1924
g1
(g5
S'(\xb1\x90:'
p1925
tp1926
Rp1927
g1
(g5
S'\xe7\xb7J\xba'
p1928
tp1929
Rp1930
g1
(g5
S'\x0b\xc9\xec\xba'
p1931
tp1932
Rp1933
g1
(g5
S'\xb4e\x1f;'
p1934
tp1935
Rp1936
g1
(g5
S'\xbc\xe7\x02:'
p1937
tp1938
Rp1939
g1
(g5
S'"F\xaf:'
p1940
tp1941
Rp1942
g1
(g5
S'\xd0\xfb\xc89'
p1943
tp1944
Rp1945
g1
(g5
S'^\xe7\x03:'
p1946
tp1947
Rp1948
g1
(g5
S'\xff8v\xba'
p1949
tp1950
Rp1951
g1
(g5
S'\x9ac::'
p1952
tp1953
Rp1954
g1
(g5
S'\xdd\x1e\xf1\xba'
p1955
tp1956
Rp1957
g1
(g5
S'\xf1r\x0c\xba'
p1958
tp1959
Rp1960
g1
(g5
S'r\x0b"\xba'
p1961
tp1962
Rp1963
g1
(g5
S'\x88\x8b\xc6\xba'
p1964
tp1965
Rp1966
g1
(g5
S'\xa8\xab\xf58'
p1967
tp1968
Rp1969
g1
(g5
S'\xda\x04\x89\xba'
p1970
tp1971
Rp1972
g1
(g5
S'\x16\xa9\x9f\xba'
p1973
tp1974
Rp1975
g1
(g5
S'\xe2\xa3+\xb9'
p1976
tp1977
Rp1978
g1
(g5
S'\x99\x98\xb5:'
p1979
tp1980
Rp1981
g1
(g5
S'\xc4,/\xba'
p1982
tp1983
Rp1984
g1
(g5
S'>$\xc6\xba'
p1985
tp1986
Rp1987
g1
(g5
S'\xa4V\x1f;'
p1988
tp1989
Rp1990
g1
(g5
S'\x88l\x03;'
p1991
tp1992
Rp1993
g1
(g5
S'\x18I\x93:'
p1994
tp1995
Rp1996
g1
(g5
S'9\xcf\x89\xba'
p1997
tp1998
Rp1999
g1
(g5
S'\x04w\x83\xb9'
p2000
tp2001
Rp2002
g1
(g5
S'\x1c@\xaa8'
p2003
tp2004
Rp2005
g1
(g5
S'd=\t\xba'
p2006
tp2007
Rp2008
g1
(g5
S'\xe0\x18\xfa\xb9'
p2009
tp2010
Rp2011
g1
(g5
S'\x1f\x85T\xba'
p2012
tp2013
Rp2014
g1
(g5
S'lk>\xba'
p2015
tp2016
Rp2017
g1
(g5
S'\x0e\x88\x93:'
p2018
tp2019
Rp2020
g1
(g5
S'\xf8\x8b\xd8:'
p2021
tp2022
Rp2023
g1
(g5
S' \xd9\xb69'
p2024
tp2025
Rp2026
g1
(g5
S'c\xea\x0c\xb9'
p2027
tp2028
Rp2029
g1
(g5
S'\xbcLG9'
p2030
tp2031
Rp2032
g1
(g5
S'n\xe6\xc6\xb9'
p2033
tp2034
Rp2035
g1
(g5
S'2u#:'
p2036
tp2037
Rp2038
g1
(g5
S'\x1e\x01E9'
p2039
tp2040
Rp2041
g1
(g5
S'\xea\x92\xe39'
p2042
tp2043
Rp2044
g1
(g5
S'\x98\x1a\xcb\xb8'
p2045
tp2046
Rp2047
g1
(g5
S'\xbc|\xa29'
p2048
tp2049
Rp2050
g1
(g5
S'\xee\xcc\xc7:'
p2051
tp2052
Rp2053
g1
(g5
S"\xac&'\xb9"
p2054
tp2055
Rp2056
g1
(g5
S'%\xf4W:'
p2057
tp2058
Rp2059
g1
(g5
S'6\xbe|\xba'
p2060
tp2061
Rp2062
g1
(g5
S'\xd4bZ9'
p2063
tp2064
Rp2065
g1
(g5
S'=9\xb4\xb9'
p2066
tp2067
Rp2068
g1
(g5
S'+p\xdf\xba'
p2069
tp2070
Rp2071
g1
(g5
S'\x074\x91:'
p2072
tp2073
Rp2074
g1
(g5
S'\xa4\x84\xc0:'
p2075
tp2076
Rp2077
g1
(g5
S'n79\xba'
p2078
tp2079
Rp2080
g1
(g5
S' \xb8\x08:'
p2081
tp2082
Rp2083
g1
(g5
S'\xa6\t\xac:'
p2084
tp2085
Rp2086
g1
(g5
S'B\x8f\xae:'
p2087
tp2088
Rp2089
g1
(g5
S'C\xa8\x8d\xb9'
p2090
tp2091
Rp2092
g1
(g5
S'\xc7q\xa9\xb9'
p2093
tp2094
Rp2095
g1
(g5
S'\x06z\x8e:'
p2096
tp2097
Rp2098
g1
(g5
S'\xba\x89\x01;'
p2099
tp2100
Rp2101
g1
(g5
S'\xcf\x915\xba'
p2102
tp2103
Rp2104
g1
(g5
S'\xd3f\xbd\xb9'
p2105
tp2106
Rp2107
g1
(g5
S'`\xf8\x9e\xb7'
p2108
tp2109
Rp2110
g1
(g5
S'l.\xa3:'
p2111
tp2112
Rp2113
g1
(g5
S'X\x80s\xb8'
p2114
tp2115
Rp2116
g1
(g5
S'*\xfd\x80:'
p2117
tp2118
Rp2119
tp2120
S'Move right'
p2121
s(g1
(g5
S'{\xbd\xb6\xb9'
p2122
tp2123
Rp2124
g1
(g5
S'?"+\xba'
p2125
tp2126
Rp2127
g1
(g5
S'WKf:'
p2128
tp2129
Rp2130
g1
(g5
S'2O\x00:'
p2131
tp2132
Rp2133
g1
(g5
S'\x91|\xa5\xba'
p2134
tp2135
Rp2136
g1
(g5
S'c\xb4\xc39'
p2137
tp2138
Rp2139
g1
(g5
S'\xf4\x96C9'
p2140
tp2141
Rp2142
g1
(g5
S'\xaa\x1e\xf8\xb9'
p2143
tp2144
Rp2145
g1
(g5
S'\x16\xd6\x1b;'
p2146
tp2147
Rp2148
g1
(g5
S'/K\x02;'
p2149
tp2150
Rp2151
g1
(g5
S'D@\x029'
p2152
tp2153
Rp2154
g1
(g5
S'\rr\xbd\xb8'
p2155
tp2156
Rp2157
g1
(g5
S'\xac\xd5\xb7\xba'
p2158
tp2159
Rp2160
g1
(g5
S'l*\x16:'
p2161
tp2162
Rp2163
g1
(g5
S'\xf7\x10\x12\xb9'
p2164
tp2165
Rp2166
g1
(g5
S'\xb3\x9a\xcd:'
p2167
tp2168
Rp2169
g1
(g5
S'OO"\xb9'
p2170
tp2171
Rp2172
g1
(g5
S'9{\x80:'
p2173
tp2174
Rp2175
g1
(g5
S'a1\x8b:'
p2176
tp2177
Rp2178
g1
(g5
S'\x11t\x84\xb9'
p2179
tp2180
Rp2181
g1
(g5
S'\xfc5\xd1\xb9'
p2182
tp2183
Rp2184
g1
(g5
S'\xc1\xab\xb59'
p2185
tp2186
Rp2187
g1
(g5
S"\x93\xd1'\xb9"
p2188
tp2189
Rp2190
g1
(g5
S'\xec`F:'
p2191
tp2192
Rp2193
g1
(g5
S'\xa3Js9'
p2194
tp2195
Rp2196
g1
(g5
S'\t\xb4\x0c:'
p2197
tp2198
Rp2199
g1
(g5
S'3\x9a\xce\xb9'
p2200
tp2201
Rp2202
g1
(g5
S'\x07\x19\x97\xb9'
p2203
tp2204
Rp2205
g1
(g5
S'\xe7\xe6\x94:'
p2206
tp2207
Rp2208
g1
(g5
S'\xb9\x81\xa6:'
p2209
tp2210
Rp2211
g1
(g5
S'\xc6\x91\xba\xba'
p2212
tp2213
Rp2214
g1
(g5
S'T\xc3\xc4\xba'
p2215
tp2216
Rp2217
g1
(g5
S')\x91`\xb9'
p2218
tp2219
Rp2220
g1
(g5
S'\x83\xb8\x02\xb9'
p2221
tp2222
Rp2223
g1
(g5
S'\xadQ\xce\xba'
p2224
tp2225
Rp2226
g1
(g5
S'\x97!\x1f\xb8'
p2227
tp2228
Rp2229
g1
(g5
S'v\xea\xa9\xba'
p2230
tp2231
Rp2232
g1
(g5
S'\x03\xf9;9'
p2233
tp2234
Rp2235
g1
(g5
S'\x9d\xe2\xfb9'
p2236
tp2237
Rp2238
g1
(g5
S'\xa9\x80\xfb\xb6'
p2239
tp2240
Rp2241
g1
(g5
S'A\xbdJ\xb9'
p2242
tp2243
Rp2244
g1
(g5
S'\xd6U\xb88'
p2245
tp2246
Rp2247
g1
(g5
S'n\xd3)\xba'
p2248
tp2249
Rp2250
g1
(g5
S'MN5:'
p2251
tp2252
Rp2253
g1
(g5
S't-\xfe\xb7'
p2254
tp2255
Rp2256
g1
(g5
S'\xff\r\x84\xba'
p2257
tp2258
Rp2259
g1
(g5
S'K\xa8\x92\xba'
p2260
tp2261
Rp2262
g1
(g5
S't\xe6\xcc9'
p2263
tp2264
Rp2265
g1
(g5
S't\x95\x16\xba'
p2266
tp2267
Rp2268
g1
(g5
S'd\xe6I\xba'
p2269
tp2270
Rp2271
g1
(g5
S'\xe1m\xa7\xb9'
p2272
tp2273
Rp2274
g1
(g5
S'\x8f\xb5\x16\xba'
p2275
tp2276
Rp2277
g1
(g5
S'\xe0\xda\xa1:'
p2278
tp2279
Rp2280
g1
(g5
S'\xcd@0:'
p2281
tp2282
Rp2283
g1
(g5
S'F\x9e1:'
p2284
tp2285
Rp2286
g1
(g5
S'(C\x138'
p2287
tp2288
Rp2289
g1
(g5
S'\xf9\xb0\x9f:'
p2290
tp2291
Rp2292
g1
(g5
S'\xd4CT\xba'
p2293
tp2294
Rp2295
g1
(g5
S'\xb6\xc0\x05\xb9'
p2296
tp2297
Rp2298
g1
(g5
S'hL\x16:'
p2299
tp2300
Rp2301
g1
(g5
S'\xfd\xa8\xca\xb8'
p2302
tp2303
Rp2304
g1
(g5
S'i6\x8b8'
p2305
tp2306
Rp2307
g1
(g5
S'\x13\xe2\xdb\xb9'
p2308
tp2309
Rp2310
g1
(g5
S'1\xc7\x0c\xbb'
p2311
tp2312
Rp2313
g1
(g5
S'\xc6]\x039'
p2314
tp2315
Rp2316
g1
(g5
S'\x079\x15:'
p2317
tp2318
Rp2319
g1
(g5
S'`:\xab9'
p2320
tp2321
Rp2322
g1
(g5
S'42\x86\xb8'
p2323
tp2324
Rp2325
g1
(g5
S']\xd5\xc79'
p2326
tp2327
Rp2328
g1
(g5
S'\xbf\xae)\xba'
p2329
tp2330
Rp2331
g1
(g5
S'\xa9\xe5\t\xba'
p2332
tp2333
Rp2334
g1
(g5
S'\xad\x9e\xcc\xba'
p2335
tp2336
Rp2337
g1
(g5
S'\xc1\n\xc19'
p2338
tp2339
Rp2340
g1
(g5
S'\xe3\xdd)\xba'
p2341
tp2342
Rp2343
g1
(g5
S'\x1c-{\xba'
p2344
tp2345
Rp2346
g1
(g5
S'\x19%\x9e:'
p2347
tp2348
Rp2349
g1
(g5
S'\xc7\x10\xb7:'
p2350
tp2351
Rp2352
g1
(g5
S'\xfa\xf8\xe4:'
p2353
tp2354
Rp2355
g1
(g5
S'\x14|5\xba'
p2356
tp2357
Rp2358
g1
(g5
S'\xc3\x1bn\xb9'
p2359
tp2360
Rp2361
g1
(g5
S'J\x0c\xb6\xba'
p2362
tp2363
Rp2364
g1
(g5
S'\x83\xeb\xd69'
p2365
tp2366
Rp2367
g1
(g5
S'-\xad\x0f\xba'
p2368
tp2369
Rp2370
g1
(g5
S'\x8fA\xed\xba'
p2371
tp2372
Rp2373
g1
(g5
S'\xb0\xeb\x139'
p2374
tp2375
Rp2376
g1
(g5
S'h\xd0\x03\xba'
p2377
tp2378
Rp2379
g1
(g5
S'\x83\xbb\xef\xba'
p2380
tp2381
Rp2382
g1
(g5
S'_\x9aS\xb9'
p2383
tp2384
Rp2385
g1
(g5
S'\x17\xaf\xdd9'
p2386
tp2387
Rp2388
g1
(g5
S'}8\xa7:'
p2389
tp2390
Rp2391
g1
(g5
S'\xc1\xcb\xa1\xb9'
p2392
tp2393
Rp2394
g1
(g5
S'\x80\xce\xd49'
p2395
tp2396
Rp2397
g1
(g5
S'\x0f~\xc9\xb8'
p2398
tp2399
Rp2400
g1
(g5
S'\x83\xf1S:'
p2401
tp2402
Rp2403
g1
(g5
S'\xbf\xa5*\xbb'
p2404
tp2405
Rp2406
g1
(g5
S'\x92\xed59'
p2407
tp2408
Rp2409
g1
(g5
S'#\x18\x939'
p2410
tp2411
Rp2412
g1
(g5
S'\xe6F\xb8:'
p2413
tp2414
Rp2415
g1
(g5
S'Y\x8a\x9a\xb9'
p2416
tp2417
Rp2418
g1
(g5
S'\\\xcd\x82\xba'
p2419
tp2420
Rp2421
tp2422
S'Move backward'
p2423
s(g1
(g5
S'O\x0c\xa5:'
p2424
tp2425
Rp2426
g1
(g5
S'R\xa4\xc4\xba'
p2427
tp2428
Rp2429
g1
(g5
S'\xde\x1ez:'
p2430
tp2431
Rp2432
g1
(g5
S'\xd3-z\xba'
p2433
tp2434
Rp2435
g1
(g5
S'\xb2~\xb0\xba'
p2436
tp2437
Rp2438
g1
(g5
S'`\xe8_:'
p2439
tp2440
Rp2441
g1
(g5
S'\xcb;C:'
p2442
tp2443
Rp2444
g1
(g5
S'\xderD\xba'
p2445
tp2446
Rp2447
g1
(g5
S'\x9f\x9a\xd9:'
p2448
tp2449
Rp2450
g1
(g5
S'u\x03\xdf:'
p2451
tp2452
Rp2453
g1
(g5
S'\xff\xf2\xab\xba'
p2454
tp2455
Rp2456
g1
(g5
S'\x1a\x0b\x9d:'
p2457
tp2458
Rp2459
g1
(g5
S'\x8aN\xa9\xba'
p2460
tp2461
Rp2462
g1
(g5
S'Fe\xd6:'
p2463
tp2464
Rp2465
g1
(g5
S'>t\xbd8'
p2466
tp2467
Rp2468
g1
(g5
S'\x15\xd2\xf2:'
p2469
tp2470
Rp2471
g1
(g5
S'\xb2\x92\xd1\xb9'
p2472
tp2473
Rp2474
g1
(g5
S'\x15@}9'
p2475
tp2476
Rp2477
g1
(g5
S'\xcc\xd0q:'
p2478
tp2479
Rp2480
g1
(g5
S'\xd9K\x08:'
p2481
tp2482
Rp2483
g1
(g5
S'\x06dg:'
p2484
tp2485
Rp2486
g1
(g5
S'Z\xa8\x95:'
p2487
tp2488
Rp2489
g1
(g5
S'\x9a\xffw8'
p2490
tp2491
Rp2492
g1
(g5
S'\xcfb\r:'
p2493
tp2494
Rp2495
g1
(g5
S'=\xd6\xa9\xba'
p2496
tp2497
Rp2498
g1
(g5
S'\xdc\x19,8'
p2499
tp2500
Rp2501
g1
(g5
S'\xe6\xbc\xc6:'
p2502
tp2503
Rp2504
g1
(g5
S'O\x00K9'
p2505
tp2506
Rp2507
g1
(g5
S"i\xdd'9"
p2508
tp2509
Rp2510
g1
(g5
S'I\xf3\x19:'
p2511
tp2512
Rp2513
g1
(g5
S'%o\x92\xba'
p2514
tp2515
Rp2516
g1
(g5
S']A\x01\xba'
p2517
tp2518
Rp2519
g1
(g5
S'\x9a\xc7"8'
p2520
tp2521
Rp2522
g1
(g5
S'yR(\xb9'
p2523
tp2524
Rp2525
g1
(g5
S'C\x8b\x18\xbb'
p2526
tp2527
Rp2528
g1
(g5
S'<\xdf\xdb\xb8'
p2529
tp2530
Rp2531
g1
(g5
S'\xaf\xd5\x9a\xba'
p2532
tp2533
Rp2534
g1
(g5
S'C%I\xba'
p2535
tp2536
Rp2537
g1
(g5
S'\xda\x0f-;'
p2538
tp2539
Rp2540
g1
(g5
S'g\x8ez:'
p2541
tp2542
Rp2543
g1
(g5
S'\x8f\xd8\xea8'
p2544
tp2545
Rp2546
g1
(g5
S'_c\x829'
p2547
tp2548
Rp2549
g1
(g5
S'\x07\xa0\x08\xbb'
p2550
tp2551
Rp2552
g1
(g5
S'&bE:'
p2553
tp2554
Rp2555
g1
(g5
S'\x05\x8a\x19:'
p2556
tp2557
Rp2558
g1
(g5
S'\xe1\xca:\xba'
p2559
tp2560
Rp2561
g1
(g5
S'\xde\x18~\xb9'
p2562
tp2563
Rp2564
g1
(g5
S'\xdd\xa7f:'
p2565
tp2566
Rp2567
g1
(g5
S'\xa1rQ\xb8'
p2568
tp2569
Rp2570
g1
(g5
S']{0:'
p2571
tp2572
Rp2573
g1
(g5
S'3\xaf\xd7\xba'
p2574
tp2575
Rp2576
g1
(g5
S'L\x95\r\xbb'
p2577
tp2578
Rp2579
g1
(g5
S'\xc6O\x86\xba'
p2580
tp2581
Rp2582
g1
(g5
S'\xf2+\x84\xba'
p2583
tp2584
Rp2585
g1
(g5
S'\xdafi:'
p2586
tp2587
Rp2588
g1
(g5
S'\xcd\x8c<:'
p2589
tp2590
Rp2591
g1
(g5
S'\xfe\xaa\x1a:'
p2592
tp2593
Rp2594
g1
(g5
S'\xfe\xf8y:'
p2595
tp2596
Rp2597
g1
(g5
S'\x91\xf5\x12:'
p2598
tp2599
Rp2600
g1
(g5
S'\x92\xc6 \xba'
p2601
tp2602
Rp2603
g1
(g5
S'yV\x8b:'
p2604
tp2605
Rp2606
g1
(g5
S'\x8e\x97\xe49'
p2607
tp2608
Rp2609
g1
(g5
S'\xcba\x0c:'
p2610
tp2611
Rp2612
g1
(g5
S'k\x18w9'
p2613
tp2614
Rp2615
g1
(g5
S's\x9a\xc2\xb8'
p2616
tp2617
Rp2618
g1
(g5
S'\r^\x979'
p2619
tp2620
Rp2621
g1
(g5
S'\x15\xc0,\xba'
p2622
tp2623
Rp2624
g1
(g5
S'yE\xa4:'
p2625
tp2626
Rp2627
g1
(g5
S' M\xb0:'
p2628
tp2629
Rp2630
g1
(g5
S'\xe2\x8d\xbf9'
p2631
tp2632
Rp2633
g1
(g5
S'\xfaz\x91\xba'
p2634
tp2635
Rp2636
g1
(g5
S'\x9b\x0e\xd3:'
p2637
tp2638
Rp2639
g1
(g5
S'\xbb\xf1\x99\xba'
p2640
tp2641
Rp2642
g1
(g5
S'C\x87\x08\xba'
p2643
tp2644
Rp2645
g1
(g5
S'\xa9\x9d\r\xba'
p2646
tp2647
Rp2648
g1
(g5
S'\xfe%\xc6\xb9'
p2649
tp2650
Rp2651
g1
(g5
S'\x91?\x1e:'
p2652
tp2653
Rp2654
g1
(g5
S'\xf5R\xde9'
p2655
tp2656
Rp2657
g1
(g5
S'\x93JU\xba'
p2658
tp2659
Rp2660
g1
(g5
S'\xaf\xf2\xd69'
p2661
tp2662
Rp2663
g1
(g5
S'7\x08H\xb8'
p2664
tp2665
Rp2666
g1
(g5
S'\x9a:\x11\xb8'
p2667
tp2668
Rp2669
g1
(g5
S'\xed\x01\xdf9'
p2670
tp2671
Rp2672
g1
(g5
S'\xa5\xd3\x07\xba'
p2673
tp2674
Rp2675
g1
(g5
S'\xd5\x18\x069'
p2676
tp2677
Rp2678
g1
(g5
S'\x0f9\x8a:'
p2679
tp2680
Rp2681
g1
(g5
S'1\xff\x83\xb8'
p2682
tp2683
Rp2684
g1
(g5
S'\x12\xb9)\xba'
p2685
tp2686
Rp2687
g1
(g5
S'B\xbb\xda8'
p2688
tp2689
Rp2690
g1
(g5
S'\x97\x83G\xba'
p2691
tp2692
Rp2693
g1
(g5
S'\x0b\x89\xcc\xba'
p2694
tp2695
Rp2696
g1
(g5
S'\t\xcd*\xb9'
p2697
tp2698
Rp2699
g1
(g5
S'=\xc9\xbc:'
p2700
tp2701
Rp2702
g1
(g5
S'k\x9d\xb6:'
p2703
tp2704
Rp2705
g1
(g5
S'v\x02\x80\xba'
p2706
tp2707
Rp2708
g1
(g5
S'\xab`\x96\xba'
p2709
tp2710
Rp2711
g1
(g5
S'\xc9\\\x0e:'
p2712
tp2713
Rp2714
g1
(g5
S'\xe9\xa6o\xba'
p2715
tp2716
Rp2717
g1
(g5
S'Sy\xd0\xba'
p2718
tp2719
Rp2720
g1
(g5
S'6\x90\x9e\xba'
p2721
tp2722
Rp2723
tp2724
S'What building am I in?'
p2725
s(g1
(g5
S'\xd2Ry:'
p2726
tp2727
Rp2728
g1
(g5
S'6\xf1\xc6\xb9'
p2729
tp2730
Rp2731
g1
(g5
S'(\x86\xbe:'
p2732
tp2733
Rp2734
g1
(g5
S'\x8e}3\xba'
p2735
tp2736
Rp2737
g1
(g5
S'8g#:'
p2738
tp2739
Rp2740
g1
(g5
S'\xcd\x95\x9a8'
p2741
tp2742
Rp2743
g1
(g5
S'\xdd\xb5\x89:'
p2744
tp2745
Rp2746
g1
(g5
S'\x96\xa2E:'
p2747
tp2748
Rp2749
g1
(g5
S'\xa5\x9c+:'
p2750
tp2751
Rp2752
g1
(g5
S'#\xb0\x89\xba'
p2753
tp2754
Rp2755
g1
(g5
S'HZ\x13\xbb'
p2756
tp2757
Rp2758
g1
(g5
S'A|\x15\xba'
p2759
tp2760
Rp2761
g1
(g5
S'P\xf1\x9e\xb9'
p2762
tp2763
Rp2764
g1
(g5
S'\xa1q\x18\xba'
p2765
tp2766
Rp2767
g1
(g5
S'\x81\xd8\x14\xbb'
p2768
tp2769
Rp2770
g1
(g5
S'pc\xbb:'
p2771
tp2772
Rp2773
g1
(g5
S' \x04\xa9:'
p2774
tp2775
Rp2776
g1
(g5
S'\xadM\x12;'
p2777
tp2778
Rp2779
g1
(g5
S'\xc6\xb3M:'
p2780
tp2781
Rp2782
g1
(g5
S"\xc3'w9"
p2783
tp2784
Rp2785
g1
(g5
S'\xbe\xc7N9'
p2786
tp2787
Rp2788
g1
(g5
S'\x80k=9'
p2789
tp2790
Rp2791
g1
(g5
S'4\x87\xb4\xba'
p2792
tp2793
Rp2794
g1
(g5
S'\xb8\xc6\x8a:'
p2795
tp2796
Rp2797
g1
(g5
S'\x9d\xd3\xab\xb9'
p2798
tp2799
Rp2800
g1
(g5
S'\t\x8a4:'
p2801
tp2802
Rp2803
g1
(g5
S'\x15\x8d\xb6\xba'
p2804
tp2805
Rp2806
g1
(g5
S'\xc0\xf2\xf2:'
p2807
tp2808
Rp2809
g1
(g5
S'\x82\xd1\xe5:'
p2810
tp2811
Rp2812
g1
(g5
S"'l\x01;"
p2813
tp2814
Rp2815
g1
(g5
S'5\xe0R:'
p2816
tp2817
Rp2818
g1
(g5
S'^\xa9Q\xbb'
p2819
tp2820
Rp2821
g1
(g5
S'\x1a\xbem\xb9'
p2822
tp2823
Rp2824
g1
(g5
S'\xb6B>9'
p2825
tp2826
Rp2827
g1
(g5
S'ss|\xb9'
p2828
tp2829
Rp2830
g1
(g5
S'\xc6>\xcc8'
p2831
tp2832
Rp2833
g1
(g5
S'\xbd0q\xba'
p2834
tp2835
Rp2836
g1
(g5
S'0&\t\xbb'
p2837
tp2838
Rp2839
g1
(g5
S'\n\xde\x11;'
p2840
tp2841
Rp2842
g1
(g5
S'^\xda\x8e9'
p2843
tp2844
Rp2845
g1
(g5
S'Z\xa1\x9b\xb9'
p2846
tp2847
Rp2848
g1
(g5
S'\x9a\x9b\xf37'
p2849
tp2850
Rp2851
g1
(g5
S'pD\xca:'
p2852
tp2853
Rp2854
g1
(g5
S'^N\x98\xba'
p2855
tp2856
Rp2857
g1
(g5
S'\xc6\xae8\xba'
p2858
tp2859
Rp2860
g1
(g5
S'Xb\x82\xb9'
p2861
tp2862
Rp2863
g1
(g5
S'\xff\xaf\x9b9'
p2864
tp2865
Rp2866
g1
(g5
S'+\x14\xb9:'
p2867
tp2868
Rp2869
g1
(g5
S'\xda\x14\xec\xb9'
p2870
tp2871
Rp2872
g1
(g5
S'\x9a4+\xb7'
p2873
tp2874
Rp2875
g1
(g5
S'-p\xe89'
p2876
tp2877
Rp2878
g1
(g5
S'c\x93w:'
p2879
tp2880
Rp2881
g1
(g5
S'3.\xbf:'
p2882
tp2883
Rp2884
g1
(g5
S'Sc\x11;'
p2885
tp2886
Rp2887
g1
(g5
S';b\x03\xbb'
p2888
tp2889
Rp2890
g1
(g5
S'\x9e\x1a#\xbb'
p2891
tp2892
Rp2893
g1
(g5
S'0\xb3V:'
p2894
tp2895
Rp2896
g1
(g5
S'!\x02\x86:'
p2897
tp2898
Rp2899
g1
(g5
S'|\x18\x10:'
p2900
tp2901
Rp2902
g1
(g5
S'@\xae\xb29'
p2903
tp2904
Rp2905
g1
(g5
S'\x06\x1e\x978'
p2906
tp2907
Rp2908
g1
(g5
S'&^$:'
p2909
tp2910
Rp2911
g1
(g5
S'\x80\xcd6\xbb'
p2912
tp2913
Rp2914
g1
(g5
S'\xc2\xe5"\xbb'
p2915
tp2916
Rp2917
g1
(g5
S'\x00\x1d\x85\xba'
p2918
tp2919
Rp2920
g1
(g5
S'\xe3<\x9c\xb9'
p2921
tp2922
Rp2923
g1
(g5
S'\xdd\xf7R:'
p2924
tp2925
Rp2926
g1
(g5
S'S\x8fy\xb9'
p2927
tp2928
Rp2929
g1
(g5
S'r8\x86\xba'
p2930
tp2931
Rp2932
g1
(g5
S'\x00\xf2h\xba'
p2933
tp2934
Rp2935
g1
(g5
S'\xce\x99):'
p2936
tp2937
Rp2938
g1
(g5
S'\xc7\xf6\xa1\xba'
p2939
tp2940
Rp2941
g1
(g5
S'J\xad\xd5:'
p2942
tp2943
Rp2944
g1
(g5
S'\xc0\xed\x1f8'
p2945
tp2946
Rp2947
g1
(g5
S'^\x89\xac:'
p2948
tp2949
Rp2950
g1
(g5
S'\x03\t\xc4:'
p2951
tp2952
Rp2953
g1
(g5
S'A\x9c+9'
p2954
tp2955
Rp2956
g1
(g5
S'2f\xc7:'
p2957
tp2958
Rp2959
g1
(g5
S'\x8fN\xa9:'
p2960
tp2961
Rp2962
g1
(g5
S'2\x00\x8d9'
p2963
tp2964
Rp2965
g1
(g5
S'3*\x0f\xb7'
p2966
tp2967
Rp2968
g1
(g5
S'\xc6\xd2\x909'
p2969
tp2970
Rp2971
g1
(g5
S'\xba?#9'
p2972
tp2973
Rp2974
g1
(g5
S'\xad\x12\xb4\xb9'
p2975
tp2976
Rp2977
g1
(g5
S'\x95h\xfa:'
p2978
tp2979
Rp2980
g1
(g5
S'\xb0`\xa0:'
p2981
tp2982
Rp2983
g1
(g5
S'\xc3"@\xbb'
p2984
tp2985
Rp2986
g1
(g5
S'\xf2R\x90:'
p2987
tp2988
Rp2989
g1
(g5
S'\xee&?;'
p2990
tp2991
Rp2992
g1
(g5
S'\x83b\xef\xb9'
p2993
tp2994
Rp2995
g1
(g5
S'\xe0(,:'
p2996
tp2997
Rp2998
g1
(g5
S'\x8ab\xff:'
p2999
tp3000
Rp3001
g1
(g5
S'2\xce]\xb9'
p3002
tp3003
Rp3004
g1
(g5
S'\x95\xe7\xd0:'
p3005
tp3006
Rp3007
g1
(g5
S'X\xa2b\xba'
p3008
tp3009
Rp3010
g1
(g5
S'~x\x8a9'
p3011
tp3012
Rp3013
g1
(g5
S't \x80\xba'
p3014
tp3015
Rp3016
g1
(g5
S'j\xf9\xc7:'
p3017
tp3018
Rp3019
g1
(g5
S'Ke\x8c:'
p3020
tp3021
Rp3022
g1
(g5
S'&\xbdB;'
p3023
tp3024
Rp3025
tp3026
S'go to room 2332'
p3027
s(g1
(g5
S'\xbf\xb3\x16\xba'
p3028
tp3029
Rp3030
g1
(g5
S'I\xf9%\xba'
p3031
tp3032
Rp3033
g1
(g5
S'+\xa3\x10;'
p3034
tp3035
Rp3036
g1
(g5
S',\xc5]\xb9'
p3037
tp3038
Rp3039
g1
(g5
S'{\xc2\xc1\xba'
p3040
tp3041
Rp3042
g1
(g5
S'\xe4\x98w9'
p3043
tp3044
Rp3045
g1
(g5
S'\x85\xcf7\xba'
p3046
tp3047
Rp3048
g1
(g5
S'b]\xac:'
p3049
tp3050
Rp3051
g1
(g5
S'E(\n;'
p3052
tp3053
Rp3054
g1
(g5
S'lL\xbd:'
p3055
tp3056
Rp3057
g1
(g5
S'\\\xbds\xba'
p3058
tp3059
Rp3060
g1
(g5
S'\xd9<\x8d\xba'
p3061
tp3062
Rp3063
g1
(g5
S'uKn\xba'
p3064
tp3065
Rp3066
g1
(g5
S'\x03\xfc\x1c\xba'
p3067
tp3068
Rp3069
g1
(g5
S'\xe43\xf2\xb9'
p3070
tp3071
Rp3072
g1
(g5
S'1\xf2/;'
p3073
tp3074
Rp3075
g1
(g5
S'\xe3L\xdd:'
p3076
tp3077
Rp3078
g1
(g5
S'5\xcb\x18;'
p3079
tp3080
Rp3081
g1
(g5
S'\x92\xb0\r\xb9'
p3082
tp3083
Rp3084
g1
(g5
S'B\xeb\xa4:'
p3085
tp3086
Rp3087
g1
(g5
S'\x9b\xa4\xa4:'
p3088
tp3089
Rp3090
g1
(g5
S'p\xd1\xd8:'
p3091
tp3092
Rp3093
g1
(g5
S' ol:'
p3094
tp3095
Rp3096
g1
(g5
S'o\xd2\xc9:'
p3097
tp3098
Rp3099
g1
(g5
S'\x83\x9bH\xba'
p3100
tp3101
Rp3102
g1
(g5
S'b\xf5\xbd\xb9'
p3103
tp3104
Rp3105
g1
(g5
S'\x04\x94\r9'
p3106
tp3107
Rp3108
g1
(g5
S'\xfe\xdc_\xba'
p3109
tp3110
Rp3111
g1
(g5
S'\x9dG\x9f9'
p3112
tp3113
Rp3114
g1
(g5
S'\xc4\x02\x8c:'
p3115
tp3116
Rp3117
g1
(g5
S"E{'\xba"
p3118
tp3119
Rp3120
g1
(g5
S'r\x1d\x81\xba'
p3121
tp3122
Rp3123
g1
(g5
S'p\xdd\x1a:'
p3124
tp3125
Rp3126
g1
(g5
S'\x14s0:'
p3127
tp3128
Rp3129
g1
(g5
S'\xef22\xba'
p3130
tp3131
Rp3132
g1
(g5
S',\xe9\xb2\xba'
p3133
tp3134
Rp3135
g1
(g5
S'\xc9\xb6c9'
p3136
tp3137
Rp3138
g1
(g5
S'\xfekT\xb9'
p3139
tp3140
Rp3141
g1
(g5
S'7\x90\xdd:'
p3142
tp3143
Rp3144
g1
(g5
S'\xb5\x02\x06\xba'
p3145
tp3146
Rp3147
g1
(g5
S'\xc2\x9fg\xba'
p3148
tp3149
Rp3150
g1
(g5
S'\xde\xf26\xb9'
p3151
tp3152
Rp3153
g1
(g5
S'\xf4\x16\x89\xba'
p3154
tp3155
Rp3156
g1
(g5
S'\xe3$\x94:'
p3157
tp3158
Rp3159
g1
(g5
S'\xdeqr\xba'
p3160
tp3161
Rp3162
g1
(g5
S'\xcc\x89"9'
p3163
tp3164
Rp3165
g1
(g5
S'~\xe3\xfb\xb9'
p3166
tp3167
Rp3168
g1
(g5
S'\\\xb2\x9a:'
p3169
tp3170
Rp3171
g1
(g5
S'\x89\xbe\x909'
p3172
tp3173
Rp3174
g1
(g5
S',\xd4\xf2\xb9'
p3175
tp3176
Rp3177
g1
(g5
S'G\xb5H:'
p3178
tp3179
Rp3180
g1
(g5
S'\x1b*h\xba'
p3181
tp3182
Rp3183
g1
(g5
S'\xbc\xd3\xd29'
p3184
tp3185
Rp3186
g1
(g5
S'v`\xd7\xba'
p3187
tp3188
Rp3189
g1
(g5
S'\\p\xb68'
p3190
tp3191
Rp3192
g1
(g5
S'W]w\xba'
p3193
tp3194
Rp3195
g1
(g5
S'\xae\xefM:'
p3196
tp3197
Rp3198
g1
(g5
S'\xee\xb8\xfa\xb9'
p3199
tp3200
Rp3201
g1
(g5
S'\x9d\xdd\xb0:'
p3202
tp3203
Rp3204
g1
(g5
S"'\xd3\x87\xba"
p3205
tp3206
Rp3207
g1
(g5
S'\x80?j:'
p3208
tp3209
Rp3210
g1
(g5
S'\x1f!\xb37'
p3211
tp3212
Rp3213
g1
(g5
S'\xa7\xd1\xdf\xb9'
p3214
tp3215
Rp3216
g1
(g5
S'\xae&\xb6\xba'
p3217
tp3218
Rp3219
g1
(g5
S'\xfb\x05z:'
p3220
tp3221
Rp3222
g1
(g5
S'`4\xf8\xba'
p3223
tp3224
Rp3225
g1
(g5
S'S\xca\x9a\xba'
p3226
tp3227
Rp3228
g1
(g5
S'\xb0(\x069'
p3229
tp3230
Rp3231
g1
(g5
S',\x99\x0f:'
p3232
tp3233
Rp3234
g1
(g5
S'\x9c\xf8k:'
p3235
tp3236
Rp3237
g1
(g5
S'\xb2z>\xba'
p3238
tp3239
Rp3240
g1
(g5
S'\xdc\xde\xf9\xb9'
p3241
tp3242
Rp3243
g1
(g5
S'&\xc3\x839'
p3244
tp3245
Rp3246
g1
(g5
S'\x84\xe5\xaa9'
p3247
tp3248
Rp3249
g1
(g5
S'h\xcc\xa58'
p3250
tp3251
Rp3252
g1
(g5
S'<\x02\x04;'
p3253
tp3254
Rp3255
g1
(g5
S"'\xb1\xf89"
p3256
tp3257
Rp3258
g1
(g5
S'XcG9'
p3259
tp3260
Rp3261
g1
(g5
S'YK\x03\xba'
p3262
tp3263
Rp3264
g1
(g5
S'\x02\xcf5:'
p3265
tp3266
Rp3267
g1
(g5
S'\x1d\xdf\xcc\xba'
p3268
tp3269
Rp3270
g1
(g5
S'\xfb2\xb2:'
p3271
tp3272
Rp3273
g1
(g5
S'<r\xdb9'
p3274
tp3275
Rp3276
g1
(g5
S'\xf9\xf5\xa8\xb8'
p3277
tp3278
Rp3279
g1
(g5
S'U[D\xba'
p3280
tp3281
Rp3282
g1
(g5
S'iy\xfa\xb8'
p3283
tp3284
Rp3285
g1
(g5
S'{\xebH9'
p3286
tp3287
Rp3288
g1
(g5
S'lK\xb49'
p3289
tp3290
Rp3291
g1
(g5
S'5\xe4\xfd:'
p3292
tp3293
Rp3294
g1
(g5
S'\xef=\x9b:'
p3295
tp3296
Rp3297
g1
(g5
S'Z\x0f\xd1\xb9'
p3298
tp3299
Rp3300
g1
(g5
S'\xfbh\xd8:'
p3301
tp3302
Rp3303
g1
(g5
S'$\xaaF\xba'
p3304
tp3305
Rp3306
g1
(g5
S'KF\xef:'
p3307
tp3308
Rp3309
g1
(g5
S'\x00|\x0c\xbb'
p3310
tp3311
Rp3312
g1
(g5
S'|\xac\xfc\xba'
p3313
tp3314
Rp3315
g1
(g5
S'2\x01\x99:'
p3316
tp3317
Rp3318
g1
(g5
S'f\x89$;'
p3319
tp3320
Rp3321
g1
(g5
S'\xf7i\xcf\xba'
p3322
tp3323
Rp3324
g1
(g5
S'\x06\xe1\xc9\xba'
p3325
tp3326
Rp3327
tp3328
S'Klauba, stop'
p3329
s(g1
(g5
S'.g\x0c:'
p3330
tp3331
Rp3332
g1
(g5
S'j2\x9e9'
p3333
tp3334
Rp3335
g1
(g5
S'\xb1&!;'
p3336
tp3337
Rp3338
g1
(g5
S'MF\xdc9'
p3339
tp3340
Rp3341
g1
(g5
S'=\xb8B\xba'
p3342
tp3343
Rp3344
g1
(g5
S'\xce\xc5\t\xba'
p3345
tp3346
Rp3347
g1
(g5
S'\xd68\xb6:'
p3348
tp3349
Rp3350
g1
(g5
S'+\xf9P\xba'
p3351
tp3352
Rp3353
g1
(g5
S'\xdf8D;'
p3354
tp3355
Rp3356
g1
(g5
S'\x89\x0f\xb7:'
p3357
tp3358
Rp3359
g1
(g5
S'BB\xbf\xb9'
p3360
tp3361
Rp3362
g1
(g5
S'\x90\x9d\x01\xbb'
p3363
tp3364
Rp3365
g1
(g5
S'\xf4U\xbc\xba'
p3366
tp3367
Rp3368
g1
(g5
S"\x08'\xed\xb8"
p3369
tp3370
Rp3371
g1
(g5
S'~\xea\xf6\xb9'
p3372
tp3373
Rp3374
g1
(g5
S'+F9;'
p3375
tp3376
Rp3377
g1
(g5
S'\x8c\xf7\xaf:'
p3378
tp3379
Rp3380
g1
(g5
S'\x8fJ\xf4:'
p3381
tp3382
Rp3383
g1
(g5
S'p|\xb6:'
p3384
tp3385
Rp3386
g1
(g5
S'\xb0`\xba8'
p3387
tp3388
Rp3389
g1
(g5
S'\xd8\xe4\x88\xb8'
p3390
tp3391
Rp3392
g1
(g5
S'\xda\x9c\xfb\xb9'
p3393
tp3394
Rp3395
g1
(g5
S'u=\xbb\xba'
p3396
tp3397
Rp3398
g1
(g5
S'k\xd5\x1e:'
p3399
tp3400
Rp3401
g1
(g5
S'~?\x7f\xb9'
p3402
tp3403
Rp3404
g1
(g5
S'\x1c\x1b\xe2\xb9'
p3405
tp3406
Rp3407
g1
(g5
S'\t\x84\x01\xba'
p3408
tp3409
Rp3410
g1
(g5
S'\xba\xc9V:'
p3411
tp3412
Rp3413
g1
(g5
S'x\xf1\x02;'
p3414
tp3415
Rp3416
g1
(g5
S'\xb9\xa9-:'
p3417
tp3418
Rp3419
g1
(g5
S'1\x81\xb8\xba'
p3420
tp3421
Rp3422
g1
(g5
S'i\x99\x04\xbb'
p3423
tp3424
Rp3425
g1
(g5
S'\x1d8\x99:'
p3426
tp3427
Rp3428
g1
(g5
S'.\xb6\xca\xb9'
p3429
tp3430
Rp3431
g1
(g5
S'L\xbe\x08\xbb'
p3432
tp3433
Rp3434
g1
(g5
S'q\x93\xa9\xba'
p3435
tp3436
Rp3437
g1
(g5
S'd\xbb\xd5\xba'
p3438
tp3439
Rp3440
g1
(g5
S'f\xfc\x11\xba'
p3441
tp3442
Rp3443
g1
(g5
S'\x8b\xa1\xfe9'
p3444
tp3445
Rp3446
g1
(g5
S'\xca\x87\x9d9'
p3447
tp3448
Rp3449
g1
(g5
S'4\xcfV\xba'
p3450
tp3451
Rp3452
g1
(g5
S'\xae\xe4e:'
p3453
tp3454
Rp3455
g1
(g5
S'\x05\xe8\xf69'
p3456
tp3457
Rp3458
g1
(g5
S'wma:'
p3459
tp3460
Rp3461
g1
(g5
S'X\x9e\x87\xba'
p3462
tp3463
Rp3464
g1
(g5
S'\xd8\x16K\xba'
p3465
tp3466
Rp3467
g1
(g5
S'\x89\xe4\n:'
p3468
tp3469
Rp3470
g1
(g5
S'\x9fK\x90:'
p3471
tp3472
Rp3473
g1
(g5
S'\x08\xed\x9c9'
p3474
tp3475
Rp3476
g1
(g5
S'&|*\xba'
p3477
tp3478
Rp3479
g1
(g5
S'\x97\x16\xb59'
p3480
tp3481
Rp3482
g1
(g5
S'`:_8'
p3483
tp3484
Rp3485
g1
(g5
S'\x90\x99\x91:'
p3486
tp3487
Rp3488
g1
(g5
S'\x06L\x0e:'
p3489
tp3490
Rp3491
g1
(g5
S'\xe0q\xcd9'
p3492
tp3493
Rp3494
g1
(g5
S'J\xd5\x01\xbb'
p3495
tp3496
Rp3497
g1
(g5
S'\xfde-;'
p3498
tp3499
Rp3500
g1
(g5
S'\xe6$L\xba'
p3501
tp3502
Rp3503
g1
(g5
S'$\xc7M9'
p3504
tp3505
Rp3506
g1
(g5
S'\x12\xe1\x94:'
p3507
tp3508
Rp3509
g1
(g5
S'\x08\x88?9'
p3510
tp3511
Rp3512
g1
(g5
S'6\xd6F:'
p3513
tp3514
Rp3515
g1
(g5
S'\xb0\xa9.\xba'
p3516
tp3517
Rp3518
g1
(g5
S'\xb53\xde\xba'
p3519
tp3520
Rp3521
g1
(g5
S'\x8dH\xf2\xb9'
p3522
tp3523
Rp3524
g1
(g5
S'\x0cF@:'
p3525
tp3526
Rp3527
g1
(g5
S'.z\xff9'
p3528
tp3529
Rp3530
g1
(g5
S'0~t8'
p3531
tp3532
Rp3533
g1
(g5
S'uX\x03\xba'
p3534
tp3535
Rp3536
g1
(g5
S'E\xf6\xbe\xba'
p3537
tp3538
Rp3539
g1
(g5
S'\x1b\x8f\x0c:'
p3540
tp3541
Rp3542
g1
(g5
S'\xe4\x84\xc4\xba'
p3543
tp3544
Rp3545
g1
(g5
S"\xa0:'\xb8"
p3546
tp3547
Rp3548
g1
(g5
S'\x930+:'
p3549
tp3550
Rp3551
g1
(g5
S'\xc6c\xfd9'
p3552
tp3553
Rp3554
g1
(g5
S'\xcc\x0e\x0b;'
p3555
tp3556
Rp3557
g1
(g5
S'\x8c\x90N:'
p3558
tp3559
Rp3560
g1
(g5
S'\xd5\x01\x1b:'
p3561
tp3562
Rp3563
g1
(g5
S'v\xbf^:'
p3564
tp3565
Rp3566
g1
(g5
S'\xcd@\x969'
p3567
tp3568
Rp3569
g1
(g5
S'\x07\x14\n\xba'
p3570
tp3571
Rp3572
g1
(g5
S'z\x86\xd2\xb9'
p3573
tp3574
Rp3575
g1
(g5
S'_K-\xb9'
p3576
tp3577
Rp3578
g1
(g5
S'Z\x8f\xd2\xba'
p3579
tp3580
Rp3581
g1
(g5
S'\x834\xdf:'
p3582
tp3583
Rp3584
g1
(g5
S'<\x86A9'
p3585
tp3586
Rp3587
g1
(g5
S'\xac\x0f\xd1\xba'
p3588
tp3589
Rp3590
g1
(g5
S'\xe6\xe0\x0f:'
p3591
tp3592
Rp3593
g1
(g5
S'\xb7J\x9c:'
p3594
tp3595
Rp3596
g1
(g5
S'\x14\xe6\x039'
p3597
tp3598
Rp3599
g1
(g5
S'\x8b\xdf\xef9'
p3600
tp3601
Rp3602
g1
(g5
S'h\x13\xb79'
p3603
tp3604
Rp3605
g1
(g5
S'{\xd7\xbe\xb8'
p3606
tp3607
Rp3608
g1
(g5
S'\xc8\xac\xff:'
p3609
tp3610
Rp3611
g1
(g5
S'\x1e\xfa\x12\xb9'
p3612
tp3613
Rp3614
g1
(g5
S'\xba\xa5A\xba'
p3615
tp3616
Rp3617
g1
(g5
S'\x92G\xc4\xb9'
p3618
tp3619
Rp3620
g1
(g5
S'\x9a\x87\xe2:'
p3621
tp3622
Rp3623
g1
(g5
S'\x11\x03\xf7:'
p3624
tp3625
Rp3626
g1
(g5
S'Z*\xf0:'
p3627
tp3628
Rp3629
tp3630
S'Go forward'
p3631
s(g1
(g5
S'\xdb\r\xb2\xb9'
p3632
tp3633
Rp3634
g1
(g5
S'W\rW:'
p3635
tp3636
Rp3637
g1
(g5
S'\x15\xbd<:'
p3638
tp3639
Rp3640
g1
(g5
S'\xdb\x8c\x97:'
p3641
tp3642
Rp3643
g1
(g5
S'\xc76\x18;'
p3644
tp3645
Rp3646
g1
(g5
S'\xdf\xdb\x97\xba'
p3647
tp3648
Rp3649
g1
(g5
S'F\x19\x13\xba'
p3650
tp3651
Rp3652
g1
(g5
S'\x1b7G:'
p3653
tp3654
Rp3655
g1
(g5
S'\xcb?\xbd:'
p3656
tp3657
Rp3658
g1
(g5
S'\x89\xa0\xee:'
p3659
tp3660
Rp3661
g1
(g5
S'[\x9b\xc7\xba'
p3662
tp3663
Rp3664
g1
(g5
S'\xbd\x90@:'
p3665
tp3666
Rp3667
g1
(g5
S'EI\x80:'
p3668
tp3669
Rp3670
g1
(g5
S'%o\xab\xba'
p3671
tp3672
Rp3673
g1
(g5
S'3\xd4\x18;'
p3674
tp3675
Rp3676
g1
(g5
S'P\xedE\xba'
p3677
tp3678
Rp3679
g1
(g5
S'$/0\xba'
p3680
tp3681
Rp3682
g1
(g5
S'\xdf^\xb6:'
p3683
tp3684
Rp3685
g1
(g5
S'\xd7Z\x85:'
p3686
tp3687
Rp3688
g1
(g5
S'\xeb5H:'
p3689
tp3690
Rp3691
g1
(g5
S'\x8a[\x06\xba'
p3692
tp3693
Rp3694
g1
(g5
S'\x83~\x17;'
p3695
tp3696
Rp3697
g1
(g5
S'\x17D\x02\xbb'
p3698
tp3699
Rp3700
g1
(g5
S'\x0f\x07p\xba'
p3701
tp3702
Rp3703
g1
(g5
S'\x80\x85L\xb8'
p3704
tp3705
Rp3706
g1
(g5
S'\x00\xd4\xee\xb6'
p3707
tp3708
Rp3709
g1
(g5
S'{\x9b\x91:'
p3710
tp3711
Rp3712
g1
(g5
S'\xe0\xb8j\xba'
p3713
tp3714
Rp3715
g1
(g5
S'-\x13J8'
p3716
tp3717
Rp3718
g1
(g5
S'\xe9\xf1\xa1:'
p3719
tp3720
Rp3721
g1
(g5
S'7\x89\x9b\xba'
p3722
tp3723
Rp3724
g1
(g5
S'\x13\xbdh\xbb'
p3725
tp3726
Rp3727
g1
(g5
S'7\n\xe9\xb9'
p3728
tp3729
Rp3730
g1
(g5
S'\xe0I\xe18'
p3731
tp3732
Rp3733
g1
(g5
S'\xd5N2\xbb'
p3734
tp3735
Rp3736
g1
(g5
S'\x9d*\x0f;'
p3737
tp3738
Rp3739
g1
(g5
S"\xdf'\x8a9"
p3740
tp3741
Rp3742
g1
(g5
S'LE\x92\xba'
p3743
tp3744
Rp3745
g1
(g5
S'\xd5\xc8\xcd7'
p3746
tp3747
Rp3748
g1
(g5
S'X1\xd99'
p3749
tp3750
Rp3751
g1
(g5
S'\x98\x93\xaf:'
p3752
tp3753
Rp3754
g1
(g5
S'\xf9h\x8c\xba'
p3755
tp3756
Rp3757
g1
(g5
S'!\x91\xfc\xb9'
p3758
tp3759
Rp3760
g1
(g5
S'\xcd-\xa7\xba'
p3761
tp3762
Rp3763
g1
(g5
S')\xf7,:'
p3764
tp3765
Rp3766
g1
(g5
S'Q@\x92\xba'
p3767
tp3768
Rp3769
g1
(g5
S"E'\x16:"
p3770
tp3771
Rp3772
g1
(g5
S'm\x1bD\xba'
p3773
tp3774
Rp3775
g1
(g5
S'\x8c\xefS\xba'
p3776
tp3777
Rp3778
g1
(g5
S'H0\x9c:'
p3779
tp3780
Rp3781
g1
(g5
S'\xb5\xf9\xe4\xba'
p3782
tp3783
Rp3784
g1
(g5
S'\xdfj\xb6\xba'
p3785
tp3786
Rp3787
g1
(g5
S'K\xfb$\xb8'
p3788
tp3789
Rp3790
g1
(g5
S'\x88\xf9\x02:'
p3791
tp3792
Rp3793
g1
(g5
S'\xecq\xfe\xba'
p3794
tp3795
Rp3796
g1
(g5
S'\xc5\x1f.\xba'
p3797
tp3798
Rp3799
g1
(g5
S'\xc7u\xa8:'
p3800
tp3801
Rp3802
g1
(g5
S'\xab\x02\x916'
p3803
tp3804
Rp3805
g1
(g5
S'%mD\xba'
p3806
tp3807
Rp3808
g1
(g5
S'\xbf\xa9\xa5\xba'
p3809
tp3810
Rp3811
g1
(g5
S'm\x084\xbb'
p3812
tp3813
Rp3814
g1
(g5
S'u\x97\x08:'
p3815
tp3816
Rp3817
g1
(g5
S'at\xf8\xba'
p3818
tp3819
Rp3820
g1
(g5
S'\x8dq\xdc\xba'
p3821
tp3822
Rp3823
g1
(g5
S'h\xa4/\xbb'
p3824
tp3825
Rp3826
g1
(g5
S'\x80\xe7\x1b\xba'
p3827
tp3828
Rp3829
g1
(g5
S'\xac\x00@\xba'
p3830
tp3831
Rp3832
g1
(g5
S'SW\xc1:'
p3833
tp3834
Rp3835
g1
(g5
S'\xf5\x10\xc68'
p3836
tp3837
Rp3838
g1
(g5
S'\xdbr\x81:'
p3839
tp3840
Rp3841
g1
(g5
S'\x15\x9b\xbc\xb9'
p3842
tp3843
Rp3844
g1
(g5
S'\x97>\xf7\xba'
p3845
tp3846
Rp3847
g1
(g5
S'\x1c\xf03\xba'
p3848
tp3849
Rp3850
g1
(g5
S'"\xb5\xa8:'
p3851
tp3852
Rp3853
g1
(g5
S'\xd4\xc6\x8b\xba'
p3854
tp3855
Rp3856
g1
(g5
S'G\xdb\x1f\xba'
p3857
tp3858
Rp3859
g1
(g5
S'\xef\x9e\xae:'
p3860
tp3861
Rp3862
g1
(g5
S'\x07\x94F:'
p3863
tp3864
Rp3865
g1
(g5
S'\xe1\xf1b:'
p3866
tp3867
Rp3868
g1
(g5
S'tX%\xba'
p3869
tp3870
Rp3871
g1
(g5
S'\xe7F\x9c9'
p3872
tp3873
Rp3874
g1
(g5
S']\x05\xca9'
p3875
tp3876
Rp3877
g1
(g5
S'\x11\xaaS\xba'
p3878
tp3879
Rp3880
g1
(g5
S'A=N\xbb'
p3881
tp3882
Rp3883
g1
(g5
S'E\x9c\xbf:'
p3884
tp3885
Rp3886
g1
(g5
S'm\x04o\xba'
p3887
tp3888
Rp3889
g1
(g5
S'\xf5X{\xb9'
p3890
tp3891
Rp3892
g1
(g5
S'\xc0.J\xb8'
p3893
tp3894
Rp3895
g1
(g5
S'\x1d\xb5\xfc:'
p3896
tp3897
Rp3898
g1
(g5
S'<\xe0W;'
p3899
tp3900
Rp3901
g1
(g5
S'9L\x1f\xba'
p3902
tp3903
Rp3904
g1
(g5
S'\xcdU\xef9'
p3905
tp3906
Rp3907
g1
(g5
S'\x1d\xfb\x05:'
p3908
tp3909
Rp3910
g1
(g5
S'x\xa4P\xba'
p3911
tp3912
Rp3913
g1
(g5
S'\xb56\xe1\xb8'
p3914
tp3915
Rp3916
g1
(g5
S'\x05}\x88\xba'
p3917
tp3918
Rp3919
g1
(g5
S'\xb3E\xb38'
p3920
tp3921
Rp3922
g1
(g5
S'\xb3\xe0\x83:'
p3923
tp3924
Rp3925
g1
(g5
S'\xe3-\x1b\xba'
p3926
tp3927
Rp3928
g1
(g5
S'[c\x89:'
p3929
tp3930
Rp3931
tp3932
S'Where am I?'
p3933
s(g1
(g5
S'\x18\xc9>\xba'
p3934
tp3935
Rp3936
g1
(g5
S'W\x96\xf4\xba'
p3937
tp3938
Rp3939
g1
(g5
S'\xb7@\x11;'
p3940
tp3941
Rp3942
g1
(g5
S'\x91\x8c\x88:'
p3943
tp3944
Rp3945
g1
(g5
S'<|*\xba'
p3946
tp3947
Rp3948
g1
(g5
S'\xf3\x1d\x1f;'
p3949
tp3950
Rp3951
g1
(g5
S'\xd5\xe1\xbe\xb8'
p3952
tp3953
Rp3954
g1
(g5
S'S\x08\xa59'
p3955
tp3956
Rp3957
g1
(g5
S'\xc79\t;'
p3958
tp3959
Rp3960
g1
(g5
S'\x91\xbf?\xbb'
p3961
tp3962
Rp3963
g1
(g5
S'\x0c\x96\x87\xba'
p3964
tp3965
Rp3966
g1
(g5
S' rW\xbb'
p3967
tp3968
Rp3969
g1
(g5
S'\x00U\x1d\xbb'
p3970
tp3971
Rp3972
g1
(g5
S'\xe4\xba\x00\xbb'
p3973
tp3974
Rp3975
g1
(g5
S'\xa03:\xbb'
p3976
tp3977
Rp3978
g1
(g5
S'G\xb8\x03;'
p3979
tp3980
Rp3981
g1
(g5
S'\x10`^;'
p3982
tp3983
Rp3984
g1
(g5
S'\x833N;'
p3985
tp3986
Rp3987
g1
(g5
S'\x0f\x1bs\xba'
p3988
tp3989
Rp3990
g1
(g5
S'\x14\xf1\xcc\xb9'
p3991
tp3992
Rp3993
g1
(g5
S'\xe5\x14\xcf:'
p3994
tp3995
Rp3996
g1
(g5
S'=\x89\xb2:'
p3997
tp3998
Rp3999
g1
(g5
S'\xb5a\x83\xba'
p4000
tp4001
Rp4002
g1
(g5
S'\x0b\x98C:'
p4003
tp4004
Rp4005
g1
(g5
S'\x1d\x82\xa89'
p4006
tp4007
Rp4008
g1
(g5
S'\x10|Q\xba'
p4009
tp4010
Rp4011
g1
(g5
S'_\x81\\\xba'
p4012
tp4013
Rp4014
g1
(g5
S'\xcb\x03\x97:'
p4015
tp4016
Rp4017
g1
(g5
S'\x9b\xf8]\xb9'
p4018
tp4019
Rp4020
g1
(g5
S'\xcc\xc1\x90:'
p4021
tp4022
Rp4023
g1
(g5
S'\x80Ww8'
p4024
tp4025
Rp4026
g1
(g5
S'\x85y:\xbb'
p4027
tp4028
Rp4029
g1
(g5
S'[\x17j:'
p4030
tp4031
Rp4032
g1
(g5
S'\xeb\xa7i\xb9'
p4033
tp4034
Rp4035
g1
(g5
S'\x83GT:'
p4036
tp4037
Rp4038
g1
(g5
S'\x95B\xb4\xba'
p4039
tp4040
Rp4041
g1
(g5
S'\xa9\xb2\x82\xba'
p4042
tp4043
Rp4044
g1
(g5
S'\x0c\x13\x02\xbb'
p4045
tp4046
Rp4047
g1
(g5
S'\xa3[\x94;'
p4048
tp4049
Rp4050
g1
(g5
S'\xe5q\x889'
p4051
tp4052
Rp4053
g1
(g5
S'\xd0|g\xba'
p4054
tp4055
Rp4056
g1
(g5
S'\x02\xeb\x86:'
p4057
tp4058
Rp4059
g1
(g5
S'\xed\x0e\xe8:'
p4060
tp4061
Rp4062
g1
(g5
S'kf\x93\xb8'
p4063
tp4064
Rp4065
g1
(g5
S'a\xfdp:'
p4066
tp4067
Rp4068
g1
(g5
S'\x18\xec\x0b\xb9'
p4069
tp4070
Rp4071
g1
(g5
S'\x83\xe2\x9a\xb9'
p4072
tp4073
Rp4074
g1
(g5
S'\x15\x88\xd98'
p4075
tp4076
Rp4077
g1
(g5
S'TU\x8b\xba'
p4078
tp4079
Rp4080
g1
(g5
S'\x9f>+\xba'
p4081
tp4082
Rp4083
g1
(g5
S'\x8d\xe3\xc7:'
p4084
tp4085
Rp4086
g1
(g5
S'\xc4\x86\xd0:'
p4087
tp4088
Rp4089
g1
(g5
S'qrV:'
p4090
tp4091
Rp4092
g1
(g5
S')\xdd\xd39'
p4093
tp4094
Rp4095
g1
(g5
S'\xeb-\x08\xbb'
p4096
tp4097
Rp4098
g1
(g5
S'\x1c>5\xbb'
p4099
tp4100
Rp4101
g1
(g5
S'\x93a\x0e;'
p4102
tp4103
Rp4104
g1
(g5
S'\xe3\x9b\xf0\xb9'
p4105
tp4106
Rp4107
g1
(g5
S'K\\\xee:'
p4108
tp4109
Rp4110
g1
(g5
S'G\xb6\xa6\xba'
p4111
tp4112
Rp4113
g1
(g5
S'\xf7\x94\r;'
p4114
tp4115
Rp4116
g1
(g5
S'\x1e\xc7\xa5\xb8'
p4117
tp4118
Rp4119
g1
(g5
S'\xf1S\x13\xbb'
p4120
tp4121
Rp4122
g1
(g5
S'q\x06\x10\xbb'
p4123
tp4124
Rp4125
g1
(g5
S'#\x0b\x00;'
p4126
tp4127
Rp4128
g1
(g5
S'\xadY\x8e\xbb'
p4129
tp4130
Rp4131
g1
(g5
S'\xfb\x8ee:'
p4132
tp4133
Rp4134
g1
(g5
S'\xc2\xe1\x81\xba'
p4135
tp4136
Rp4137
g1
(g5
S'\x01_&\xbb'
p4138
tp4139
Rp4140
g1
(g5
S'\xfd\x93\x0b:'
p4141
tp4142
Rp4143
g1
(g5
S'\x03\x04\xe7\xb9'
p4144
tp4145
Rp4146
g1
(g5
S'%\x87\xa8\xba'
p4147
tp4148
Rp4149
g1
(g5
S'\xe8\x01w:'
p4150
tp4151
Rp4152
g1
(g5
S'[5\x07:'
p4153
tp4154
Rp4155
g1
(g5
S'\x1aH\xa1:'
p4156
tp4157
Rp4158
g1
(g5
S'5P!\xb9'
p4159
tp4160
Rp4161
g1
(g5
S'a\x80\xa4\xba'
p4162
tp4163
Rp4164
g1
(g5
S'(\xc9\xcd:'
p4165
tp4166
Rp4167
g1
(g5
S'odW:'
p4168
tp4169
Rp4170
g1
(g5
S'{\xa3\x96\xb8'
p4171
tp4172
Rp4173
g1
(g5
S'\x8c\x9d\xe8\xb9'
p4174
tp4175
Rp4176
g1
(g5
S';\xac\x18:'
p4177
tp4178
Rp4179
g1
(g5
S'}<\xd0:'
p4180
tp4181
Rp4182
g1
(g5
S'c\x17\xa0\xba'
p4183
tp4184
Rp4185
g1
(g5
S'4\xe8*\xbb'
p4186
tp4187
Rp4188
g1
(g5
S'u\xfa\x94:'
p4189
tp4190
Rp4191
g1
(g5
S'\xa5\xbb\xcd\xb9'
p4192
tp4193
Rp4194
g1
(g5
S'\x15\xb0\xf1:'
p4195
tp4196
Rp4197
g1
(g5
S'\xe0\x18\xf7:'
p4198
tp4199
Rp4200
g1
(g5
S'k\x8b!\xba'
p4201
tp4202
Rp4203
g1
(g5
S'\x1b\xca\xfc\xba'
p4204
tp4205
Rp4206
g1
(g5
S'\xad\xdb\t;'
p4207
tp4208
Rp4209
g1
(g5
S'c\xf2\x13\xba'
p4210
tp4211
Rp4212
g1
(g5
S'\xed\xdf\xbc:'
p4213
tp4214
Rp4215
g1
(g5
S'\x8c \x88\xba'
p4216
tp4217
Rp4218
g1
(g5
S'3\x0cc\xba'
p4219
tp4220
Rp4221
g1
(g5
S'\x00\x8f\x978'
p4222
tp4223
Rp4224
g1
(g5
S'm9\x9f;'
p4225
tp4226
Rp4227
g1
(g5
S'\xc4\x0b\r:'
p4228
tp4229
Rp4230
g1
(g5
S'\xc1SK\xba'
p4231
tp4232
Rp4233
tp4234
S'Stop'
p4235
s(g1
(g5
S'\x14\xf6Z9'
p4236
tp4237
Rp4238
g1
(g5
S'\x13\x14{9'
p4239
tp4240
Rp4241
g1
(g5
S'S\xc9\xc2:'
p4242
tp4243
Rp4244
g1
(g5
S'\xb7\xe1\xae\xb8'
p4245
tp4246
Rp4247
g1
(g5
S'K\xa9\xb1\xb8'
p4248
tp4249
Rp4250
g1
(g5
S'\xcf\xd6\x91\xba'
p4251
tp4252
Rp4253
g1
(g5
S'W\xcb\x11\xba'
p4254
tp4255
Rp4256
g1
(g5
S'\xfb<6:'
p4257
tp4258
Rp4259
g1
(g5
S'I\x1c\xc6:'
p4260
tp4261
Rp4262
g1
(g5
S'9\xb6\x1a;'
p4263
tp4264
Rp4265
g1
(g5
S'=\x1bS\xba'
p4266
tp4267
Rp4268
g1
(g5
S'\x05\xf2@:'
p4269
tp4270
Rp4271
g1
(g5
S'\x14s\x0f9'
p4272
tp4273
Rp4274
g1
(g5
S'\x9e\xfa\x03\xba'
p4275
tp4276
Rp4277
g1
(g5
S'=\xfa\xd2:'
p4278
tp4279
Rp4280
g1
(g5
S'G\x85\x91:'
p4281
tp4282
Rp4283
g1
(g5
S'S\xe9@\xb9'
p4284
tp4285
Rp4286
g1
(g5
S'\xfft\xc6:'
p4287
tp4288
Rp4289
g1
(g5
S'\xcd\x94J:'
p4290
tp4291
Rp4292
g1
(g5
S'\x08\x1eE:'
p4293
tp4294
Rp4295
g1
(g5
S'\xc0\x04\xc67'
p4296
tp4297
Rp4298
g1
(g5
S'AT\xfe:'
p4299
tp4300
Rp4301
g1
(g5
S'y\x9c\x19\xba'
p4302
tp4303
Rp4304
g1
(g5
S'\xad.X:'
p4305
tp4306
Rp4307
g1
(g5
S'l\xde\x8a\xba'
p4308
tp4309
Rp4310
g1
(g5
S'_"E\xba'
p4311
tp4312
Rp4313
g1
(g5
S'\xf8\xfbB:'
p4314
tp4315
Rp4316
g1
(g5
S']a\xb1\xba'
p4317
tp4318
Rp4319
g1
(g5
S'\xd1\xad":'
p4320
tp4321
Rp4322
g1
(g5
S'\xa6\x8f\x00:'
p4323
tp4324
Rp4325
g1
(g5
S'\xadk\xb5\xba'
p4326
tp4327
Rp4328
g1
(g5
S'\xb4\x96\x95\xba'
p4329
tp4330
Rp4331
g1
(g5
S'\t\x1c\xbc8'
p4332
tp4333
Rp4334
g1
(g5
S'\x89BR:'
p4335
tp4336
Rp4337
g1
(g5
S'\xad\xda"\xbb'
p4338
tp4339
Rp4340
g1
(g5
S'\xd4\x89o:'
p4341
tp4342
Rp4343
g1
(g5
S'\xd1\x0c\xc39'
p4344
tp4345
Rp4346
g1
(g5
S'\x8f\xa2\x84\xb9'
p4347
tp4348
Rp4349
g1
(g5
S'\xaf\x89 \xb9'
p4350
tp4351
Rp4352
g1
(g5
S'\xf7Y\xdc9'
p4353
tp4354
Rp4355
g1
(g5
S'7C\xc3\xb9'
p4356
tp4357
Rp4358
g1
(g5
S'8\xf9S\xba'
p4359
tp4360
Rp4361
g1
(g5
S'\xf4(\xce\xba'
p4362
tp4363
Rp4364
g1
(g5
S'\xf8u*9'
p4365
tp4366
Rp4367
g1
(g5
S'\x00\xe9\xc8\xb9'
p4368
tp4369
Rp4370
g1
(g5
S'{\x9b\x89\xba'
p4371
tp4372
Rp4373
g1
(g5
S'\x04\xe479'
p4374
tp4375
Rp4376
g1
(g5
S'\xf89\xc29'
p4377
tp4378
Rp4379
g1
(g5
S'w\x10\x8e8'
p4380
tp4381
Rp4382
g1
(g5
S'K5>:'
p4383
tp4384
Rp4385
g1
(g5
S'xZ0\xba'
p4386
tp4387
Rp4388
g1
(g5
S'I{\xe2\xba'
p4389
tp4390
Rp4391
g1
(g5
S'\xe8\xdcw8'
p4392
tp4393
Rp4394
g1
(g5
S'\x19v\xba\xba'
p4395
tp4396
Rp4397
g1
(g5
S'\x7fj\x8a\xb9'
p4398
tp4399
Rp4400
g1
(g5
S']\xe7\xf7\xb9'
p4401
tp4402
Rp4403
g1
(g5
S'w\xc5\x8b:'
p4404
tp4405
Rp4406
g1
(g5
S'\xd7U\xb4\xb9'
p4407
tp4408
Rp4409
g1
(g5
S'\xc3\x19T\xb9'
p4410
tp4411
Rp4412
g1
(g5
S'\xe7\xc1X\xba'
p4413
tp4414
Rp4415
g1
(g5
S'\xe0u\xc3\xba'
p4416
tp4417
Rp4418
g1
(g5
S'\x07;\x07:'
p4419
tp4420
Rp4421
g1
(g5
S'\x93\x15Y\xb9'
p4422
tp4423
Rp4424
g1
(g5
S'\xf3\xac\xa8\xba'
p4425
tp4426
Rp4427
g1
(g5
S'Avj\xba'
p4428
tp4429
Rp4430
g1
(g5
S'\xd8Qo\xb9'
p4431
tp4432
Rp4433
g1
(g5
S'q\xee\xce\xba'
p4434
tp4435
Rp4436
g1
(g5
S'y\r\x93:'
p4437
tp4438
Rp4439
g1
(g5
S'A\xc8\x0b:'
p4440
tp4441
Rp4442
g1
(g5
S'\xbb\xf5\x839'
p4443
tp4444
Rp4445
g1
(g5
S'@\xe6\x1a\xba'
p4446
tp4447
Rp4448
g1
(g5
S'h"\xc3\xba'
p4449
tp4450
Rp4451
g1
(g5
S'\xcbC\xc97'
p4452
tp4453
Rp4454
g1
(g5
S'`\xe7{:'
p4455
tp4456
Rp4457
g1
(g5
S'x]\xad\xba'
p4458
tp4459
Rp4460
g1
(g5
S'\xef\xe6\x87:'
p4461
tp4462
Rp4463
g1
(g5
S'\xcc\xd5K:'
p4464
tp4465
Rp4466
g1
(g5
S'\xa9\xacl:'
p4467
tp4468
Rp4469
g1
(g5
S'\x98\xc1\x95\xb9'
p4470
tp4471
Rp4472
g1
(g5
S'\xb4\x11\xb5\xb9'
p4473
tp4474
Rp4475
g1
(g5
S'\xcd+_\xba'
p4476
tp4477
Rp4478
g1
(g5
S'\xc0\xe7\xe19'
p4479
tp4480
Rp4481
g1
(g5
S'I\xdf\xa9\xb9'
p4482
tp4483
Rp4484
g1
(g5
S'S\xb7\xa8\xba'
p4485
tp4486
Rp4487
g1
(g5
S'\xa7y\x07:'
p4488
tp4489
Rp4490
g1
(g5
S'\xa98\xa1\xb9'
p4491
tp4492
Rp4493
g1
(g5
S'\xf1\x0f\xef\xb9'
p4494
tp4495
Rp4496
g1
(g5
S'\xf0\xd9h\xba'
p4497
tp4498
Rp4499
g1
(g5
S'\xbb=\xce:'
p4500
tp4501
Rp4502
g1
(g5
S"\x87-';"
p4503
tp4504
Rp4505
g1
(g5
S'\xd7U\x10\xba'
p4506
tp4507
Rp4508
g1
(g5
S'\xbcN\x1a:'
p4509
tp4510
Rp4511
g1
(g5
S'00\x848'
p4512
tp4513
Rp4514
g1
(g5
S'\x90t\xd98'
p4515
tp4516
Rp4517
g1
(g5
S'\x81\xe7\xb3\xba'
p4518
tp4519
Rp4520
g1
(g5
S'\xa1\xa7\x9b\xba'
p4521
tp4522
Rp4523
g1
(g5
S'\xfb\x95\x03:'
p4524
tp4525
Rp4526
g1
(g5
S'\xe7\x1a^:'
p4527
tp4528
Rp4529
g1
(g5
S"\x91'\xd0\xba"
p4530
tp4531
Rp4532
g1
(g5
S'\xf9\xd5d\xb9'
p4533
tp4534
Rp4535
tp4536
S'Klauba, where am I?'
p4537
s(g1
(g5
S'&\x11\xec\xb7'
p4538
tp4539
Rp4540
g1
(g5
S'\x9b\x81\xbf9'
p4541
tp4542
Rp4543
g1
(g5
S'u\xc0\xf6:'
p4544
tp4545
Rp4546
g1
(g5
S'\xa6%\x8e:'
p4547
tp4548
Rp4549
g1
(g5
S'Rj#\xba'
p4550
tp4551
Rp4552
g1
(g5
S'\x03\xfd<\xb9'
p4553
tp4554
Rp4555
g1
(g5
S'\xb6I\x83:'
p4556
tp4557
Rp4558
g1
(g5
S'\xba9C\xba'
p4559
tp4560
Rp4561
g1
(g5
S'\xbe\xb9\n;'
p4562
tp4563
Rp4564
g1
(g5
S'\t\x1a\xa0:'
p4565
tp4566
Rp4567
g1
(g5
S'\x8e\xbf\xb1\xb9'
p4568
tp4569
Rp4570
g1
(g5
S'\x0b\xfc\xd0\xba'
p4571
tp4572
Rp4573
g1
(g5
S'\xd0\xcb\x9e\xba'
p4574
tp4575
Rp4576
g1
(g5
S'\xf6\xefP\xba'
p4577
tp4578
Rp4579
g1
(g5
S'\xba\x98\x828'
p4580
tp4581
Rp4582
g1
(g5
S'\x8e\x83\xd5:'
p4583
tp4584
Rp4585
g1
(g5
S'\xa0|V:'
p4586
tp4587
Rp4588
g1
(g5
S'\xc5\x88\x8b:'
p4589
tp4590
Rp4591
g1
(g5
S'f\xf1v:'
p4592
tp4593
Rp4594
g1
(g5
S'\xf7\x9b,\xb9'
p4595
tp4596
Rp4597
g1
(g5
S'\x80\x9fr\xba'
p4598
tp4599
Rp4600
g1
(g5
S'\x1b\xaf\xec\xb9'
p4601
tp4602
Rp4603
g1
(g5
S'\xde-n\xba'
p4604
tp4605
Rp4606
g1
(g5
S'\x8d\xe0\x078'
p4607
tp4608
Rp4609
g1
(g5
S'\xe6d\x989'
p4610
tp4611
Rp4612
g1
(g5
S'p\xad\x05\xb9'
p4613
tp4614
Rp4615
g1
(g5
S'|\xbc\x80\xb9'
p4616
tp4617
Rp4618
g1
(g5
S'\x1e\xad\xb09'
p4619
tp4620
Rp4621
g1
(g5
S'"\x18\xa0:'
p4622
tp4623
Rp4624
g1
(g5
S'\x98!):'
p4625
tp4626
Rp4627
g1
(g5
S'\xdf\xe7:\xba'
p4628
tp4629
Rp4630
g1
(g5
S' \xf6\xf5\xba'
p4631
tp4632
Rp4633
g1
(g5
S'\x0eQ,:'
p4634
tp4635
Rp4636
g1
(g5
S'E\x91\xbe\xb9'
p4637
tp4638
Rp4639
g1
(g5
S'\xdec\x0b\xbb'
p4640
tp4641
Rp4642
g1
(g5
S'\xdb\xe9\x1e\xba'
p4643
tp4644
Rp4645
g1
(g5
S'h\x9dq\xba'
p4646
tp4647
Rp4648
g1
(g5
S'j\x91\x9f\xba'
p4649
tp4650
Rp4651
g1
(g5
S'k#\x13:'
p4652
tp4653
Rp4654
g1
(g5
S'\x9c\x83E\xb9'
p4655
tp4656
Rp4657
g1
(g5
S'[\xdf\xdc\xb9'
p4658
tp4659
Rp4660
g1
(g5
S'\xb8\xde\xde9'
p4661
tp4662
Rp4663
g1
(g5
S'\xea\xdf\x0b:'
p4664
tp4665
Rp4666
g1
(g5
S'\x13\x81\x999'
p4667
tp4668
Rp4669
g1
(g5
S'\xaf\x1f\x9c\xb9'
p4670
tp4671
Rp4672
g1
(g5
S'R\xa0\x96\xba'
p4673
tp4674
Rp4675
g1
(g5
S'1\x13\xc6\xb9'
p4676
tp4677
Rp4678
g1
(g5
S'\xa6\x97\xa18'
p4679
tp4680
Rp4681
g1
(g5
S'\x85\x81\x17\xba'
p4682
tp4683
Rp4684
g1
(g5
S'M\xc7h\xba'
p4685
tp4686
Rp4687
g1
(g5
S'+AH9'
p4688
tp4689
Rp4690
g1
(g5
S'\xad\x8d\x92\xb9'
p4691
tp4692
Rp4693
g1
(g5
S'\xc2?\x1d:'
p4694
tp4695
Rp4696
g1
(g5
S'.\xb6^:'
p4697
tp4698
Rp4699
g1
(g5
S'\xf3$\x179'
p4700
tp4701
Rp4702
g1
(g5
S'\x82\xbf\x05\xbb'
p4703
tp4704
Rp4705
g1
(g5
S'\x8awD;'
p4706
tp4707
Rp4708
g1
(g5
S'\x93\x15(9'
p4709
tp4710
Rp4711
g1
(g5
S'h\x15\xc79'
p4712
tp4713
Rp4714
g1
(g5
S'\x9b\xef\xd19'
p4715
tp4716
Rp4717
g1
(g5
S'\xf6\xf0\x03\xba'
p4718
tp4719
Rp4720
g1
(g5
S'ruP:'
p4721
tp4722
Rp4723
g1
(g5
S'\xc83\xbf\xb9'
p4724
tp4725
Rp4726
g1
(g5
S'\x81\x83\x00\xbb'
p4727
tp4728
Rp4729
g1
(g5
S'k\xf8\x03\xba'
p4730
tp4731
Rp4732
g1
(g5
S'&\xfb\xfb9'
p4733
tp4734
Rp4735
g1
(g5
S'\x1b|\x1a:'
p4736
tp4737
Rp4738
g1
(g5
S'\xa0\xb4B9'
p4739
tp4740
Rp4741
g1
(g5
S'\xa8K\xcd\xb9'
p4742
tp4743
Rp4744
g1
(g5
S'\xa7\xec\x87\xba'
p4745
tp4746
Rp4747
g1
(g5
S'x\xb0\xe59'
p4748
tp4749
Rp4750
g1
(g5
S'\xcbu\xfa\xba'
p4751
tp4752
Rp4753
g1
(g5
S'\xf3\x88&:'
p4754
tp4755
Rp4756
g1
(g5
S'b\xaf;:'
p4757
tp4758
Rp4759
g1
(g5
S'U\xe2\xff\xb8'
p4760
tp4761
Rp4762
g1
(g5
S'\xad\xd9\xd0:'
p4763
tp4764
Rp4765
g1
(g5
S'\x16r\x8d:'
p4766
tp4767
Rp4768
g1
(g5
S'\x9e\x9c\x0e:'
p4769
tp4770
Rp4771
g1
(g5
S'_\xd1\x9c9'
p4772
tp4773
Rp4774
g1
(g5
S'Y\xb1\xc29'
p4775
tp4776
Rp4777
g1
(g5
S'\xe6_c\xba'
p4778
tp4779
Rp4780
g1
(g5
S'\x1a}\x12\xb9'
p4781
tp4782
Rp4783
g1
(g5
S'\x13\x03R\xba'
p4784
tp4785
Rp4786
g1
(g5
S'\xf9\x97\x0c\xbb'
p4787
tp4788
Rp4789
g1
(g5
S'\x11\xe8\xb0:'
p4790
tp4791
Rp4792
g1
(g5
S'\xe0\xfd\xc5\xb9'
p4793
tp4794
Rp4795
g1
(g5
S'\xcb?\xa7\xba'
p4796
tp4797
Rp4798
g1
(g5
S'\xd5\xd1\xd39'
p4799
tp4800
Rp4801
g1
(g5
S'U\xa7\x89:'
p4802
tp4803
Rp4804
g1
(g5
S'B\x7f\xc09'
p4805
tp4806
Rp4807
g1
(g5
S'\x82\xbe\xad9'
p4808
tp4809
Rp4810
g1
(g5
S'\x80C\x1c\xb9'
p4811
tp4812
Rp4813
g1
(g5
S'\xa64\x19\xba'
p4814
tp4815
Rp4816
g1
(g5
S'\x1d\xed\x8e:'
p4817
tp4818
Rp4819
g1
(g5
S'p\xfdS\xba'
p4820
tp4821
Rp4822
g1
(g5
S'\x1eX%\xba'
p4823
tp4824
Rp4825
g1
(g5
S'\x93}\xf87'
p4826
tp4827
Rp4828
g1
(g5
S'+)\x04;'
p4829
tp4830
Rp4831
g1
(g5
S'\xea\x88\xd4:'
p4832
tp4833
Rp4834
g1
(g5
S'\xde\x95\xce:'
p4835
tp4836
Rp4837
tp4838
S'Move forward'
p4839
s(g1
(g5
S'\xf3IM\xba'
p4840
tp4841
Rp4842
g1
(g5
S'\xe5R\x85:'
p4843
tp4844
Rp4845
g1
(g5
S'uD!;'
p4846
tp4847
Rp4848
g1
(g5
S'c>\xfb:'
p4849
tp4850
Rp4851
g1
(g5
S'2\xaf\xff\xb9'
p4852
tp4853
Rp4854
g1
(g5
S'J\xedD:'
p4855
tp4856
Rp4857
g1
(g5
S'\xce\xc4\xc5\xb9'
p4858
tp4859
Rp4860
g1
(g5
S'\x85\x1c\x019'
p4861
tp4862
Rp4863
g1
(g5
S'\xee\xdbk7'
p4864
tp4865
Rp4866
g1
(g5
S'\x0e\x08\x858'
p4867
tp4868
Rp4869
g1
(g5
S'\xa6\x1e\xfc\xba'
p4870
tp4871
Rp4872
g1
(g5
S'S~\x8a\xba'
p4873
tp4874
Rp4875
g1
(g5
S'\xa5\xee]\xba'
p4876
tp4877
Rp4878
g1
(g5
S'hU \xbb'
p4879
tp4880
Rp4881
g1
(g5
S'\xc5\xeb\xbe:'
p4882
tp4883
Rp4884
g1
(g5
S'\x1a\x93\xd2\xb9'
p4885
tp4886
Rp4887
g1
(g5
S'\xfe\xbe\xbf\xb9'
p4888
tp4889
Rp4890
g1
(g5
S'\xb7\x8a\x07\xb8'
p4891
tp4892
Rp4893
g1
(g5
S'\xa7\xd8&9'
p4894
tp4895
Rp4896
g1
(g5
S'\x8f$%:'
p4897
tp4898
Rp4899
g1
(g5
S'xF\xd9\xba'
p4900
tp4901
Rp4902
g1
(g5
S's6\x01:'
p4903
tp4904
Rp4905
g1
(g5
S'-\x10\xef9'
p4906
tp4907
Rp4908
g1
(g5
S'\x82=\xf4\xba'
p4909
tp4910
Rp4911
g1
(g5
S'f\xaa\xbc\xb9'
p4912
tp4913
Rp4914
g1
(g5
S'\xa8I4:'
p4915
tp4916
Rp4917
g1
(g5
S'\x8b6\x8b:'
p4918
tp4919
Rp4920
g1
(g5
S'\xdd\x9fn\xb9'
p4921
tp4922
Rp4923
g1
(g5
S'g\xc2a\xba'
p4924
tp4925
Rp4926
g1
(g5
S'%\xf8J:'
p4927
tp4928
Rp4929
g1
(g5
S'\xfb\xd7\xe39'
p4930
tp4931
Rp4932
g1
(g5
S'[\x9d\x8f\xba'
p4933
tp4934
Rp4935
g1
(g5
S'\x10VI\xba'
p4936
tp4937
Rp4938
g1
(g5
S'{;\xf79'
p4939
tp4940
Rp4941
g1
(g5
S'*\x0b\xa0\xba'
p4942
tp4943
Rp4944
g1
(g5
S'\x9b|\xc2:'
p4945
tp4946
Rp4947
g1
(g5
S'\xc7:\x91:'
p4948
tp4949
Rp4950
g1
(g5
S'\x92\x840\xbb'
p4951
tp4952
Rp4953
g1
(g5
S'b\x9e\xf8:'
p4954
tp4955
Rp4956
g1
(g5
S'\x03r\xf2\xba'
p4957
tp4958
Rp4959
g1
(g5
S'\xa6\xdb\x8c\xba'
p4960
tp4961
Rp4962
g1
(g5
S'\xbfZ\x8b\xba'
p4963
tp4964
Rp4965
g1
(g5
S'\xb9A\xc3\xb9'
p4966
tp4967
Rp4968
g1
(g5
S'=\xb4\x8c9'
p4969
tp4970
Rp4971
g1
(g5
S'\xfe\x8a\x16\xb8'
p4972
tp4973
Rp4974
g1
(g5
S'\xee\x03\xc7\xba'
p4975
tp4976
Rp4977
g1
(g5
S'}\x0e<\xbb'
p4978
tp4979
Rp4980
g1
(g5
S'\xba\xb3\xd7\xba'
p4981
tp4982
Rp4983
g1
(g5
S'5\xf4c\xbb'
p4984
tp4985
Rp4986
g1
(g5
S'\x9d\xfd\xb0\xb9'
p4987
tp4988
Rp4989
g1
(g5
S'\xbeD+9'
p4990
tp4991
Rp4992
g1
(g5
S'0\xd5\xb0\xba'
p4993
tp4994
Rp4995
g1
(g5
S'\xf7\xc5\xc8\xba'
p4996
tp4997
Rp4998
g1
(g5
S'O\xb7\xe3\xb8'
p4999
tp5000
Rp5001
g1
(g5
S'\x07f\x8f\xba'
p5002
tp5003
Rp5004
g1
(g5
S'\xa2\xa3\x0b\xbb'
p5005
tp5006
Rp5007
g1
(g5
S'\x08LB;'
p5008
tp5009
Rp5010
g1
(g5
S'\xee\xc4\r;'
p5011
tp5012
Rp5013
g1
(g5
S'\xae\x86\x1f:'
p5014
tp5015
Rp5016
g1
(g5
S'\x98\x02\xf4\xba'
p5017
tp5018
Rp5019
g1
(g5
S'{\xc4\xdc8'
p5020
tp5021
Rp5022
g1
(g5
S'[\x9f\x15:'
p5023
tp5024
Rp5025
g1
(g5
S'\x96\xcc9\xba'
p5026
tp5027
Rp5028
g1
(g5
S'\xeaD\xd1\xba'
p5029
tp5030
Rp5031
g1
(g5
S'&\xd3\xd3\xba'
p5032
tp5033
Rp5034
g1
(g5
S'\x1f\x89?\xbb'
p5035
tp5036
Rp5037
g1
(g5
S'\x1e\xa6::'
p5038
tp5039
Rp5040
g1
(g5
S'\xd8\x9b\xbf\xba'
p5041
tp5042
Rp5043
g1
(g5
S'%\xf3\xbd\xba'
p5044
tp5045
Rp5046
g1
(g5
S'B\xe3\x82:'
p5047
tp5048
Rp5049
g1
(g5
S'\t\xff\xd8\xb8'
p5050
tp5051
Rp5052
g1
(g5
S'=\xfe\xc7\xba'
p5053
tp5054
Rp5055
g1
(g5
S'\xf5\x1d\x04;'
p5056
tp5057
Rp5058
g1
(g5
S'\xc2\xd6);'
p5059
tp5060
Rp5061
g1
(g5
S'2\xb4H\xba'
p5062
tp5063
Rp5064
g1
(g5
S'\xb9\xd2\x1d:'
p5065
tp5066
Rp5067
g1
(g5
S'\x95?\xa8:'
p5068
tp5069
Rp5070
g1
(g5
S'\xe2\x8b\xf6\xb9'
p5071
tp5072
Rp5073
g1
(g5
S'U1\xe2\xba'
p5074
tp5075
Rp5076
g1
(g5
S"5'\x959"
p5077
tp5078
Rp5079
g1
(g5
S'\x92\x92\xf3\xba'
p5080
tp5081
Rp5082
g1
(g5
S'\xb7mI9'
p5083
tp5084
Rp5085
g1
(g5
S'\x07s<9'
p5086
tp5087
Rp5088
g1
(g5
S'H\xca\xb2\xba'
p5089
tp5090
Rp5091
g1
(g5
S'Y\xaa\xae\xba'
p5092
tp5093
Rp5094
g1
(g5
S'\x9b\x16\x96\xba'
p5095
tp5096
Rp5097
g1
(g5
S'\x15\n`9'
p5098
tp5099
Rp5100
g1
(g5
S'2\x7f\x0b9'
p5101
tp5102
Rp5103
g1
(g5
S'\xc5\x1f19'
p5104
tp5105
Rp5106
g1
(g5
S'\xcff\x919'
p5107
tp5108
Rp5109
g1
(g5
S'\x80\x07\xb09'
p5110
tp5111
Rp5112
g1
(g5
S'\x08~\xd2\xba'
p5113
tp5114
Rp5115
g1
(g5
S'\xa9\x05\x96\xba'
p5116
tp5117
Rp5118
g1
(g5
S'\x9d\x12\x009'
p5119
tp5120
Rp5121
g1
(g5
S'r\x11\xf2\xba'
p5122
tp5123
Rp5124
g1
(g5
S' \xf8\x8c\xba'
p5125
tp5126
Rp5127
g1
(g5
S'\xab\xd2\x08:'
p5128
tp5129
Rp5130
g1
(g5
S'\xb9L);'
p5131
tp5132
Rp5133
g1
(g5
S'\x97\xa4O:'
p5134
tp5135
Rp5136
g1
(g5
S'I\x99\xad7'
p5137
tp5138
Rp5139
tp5140
S'Move left'
p5141
s(g1
(g5
S's\x05@\xb9'
p5142
tp5143
Rp5144
g1
(g5
S'\xd0-\x9a:'
p5145
tp5146
Rp5147
g1
(g5
S'J\xddl;'
p5148
tp5149
Rp5150
g1
(g5
S'\x91\x8e\x9b:'
p5151
tp5152
Rp5153
g1
(g5
S'.\xb3#\xba'
p5154
tp5155
Rp5156
g1
(g5
S'm\xc1\x15:'
p5157
tp5158
Rp5159
g1
(g5
S'z\xf5\xa0\xb9'
p5160
tp5161
Rp5162
g1
(g5
S'\xb6\x90\xca9'
p5163
tp5164
Rp5165
g1
(g5
S';-\x17:'
p5166
tp5167
Rp5168
g1
(g5
S'\x1d\xa8\xfa\xb8'
p5169
tp5170
Rp5171
g1
(g5
S'jL*\xbb'
p5172
tp5173
Rp5174
g1
(g5
S'\xf6\xb0\xbe\xba'
p5175
tp5176
Rp5177
g1
(g5
S'\xf2\x18\x8b\xba'
p5178
tp5179
Rp5180
g1
(g5
S'#\xdb\x03\xbb'
p5181
tp5182
Rp5183
g1
(g5
S'\xca2\x98:'
p5184
tp5185
Rp5186
g1
(g5
S'\xe9K8:'
p5187
tp5188
Rp5189
g1
(g5
S'f\xe6\xcf\xb4'
p5190
tp5191
Rp5192
g1
(g5
S'.\xbcS:'
p5193
tp5194
Rp5195
g1
(g5
S':w\x14:'
p5196
tp5197
Rp5198
g1
(g5
S'\xdac\xb1:'
p5199
tp5200
Rp5201
g1
(g5
S'\xe0\x80\x16\xba'
p5202
tp5203
Rp5204
g1
(g5
S'\xaaJX:'
p5205
tp5206
Rp5207
g1
(g5
S'\x1d#29'
p5208
tp5209
Rp5210
g1
(g5
S'\x9b\\\xdf\xba'
p5211
tp5212
Rp5213
g1
(g5
S'\x96G\xc1\xba'
p5214
tp5215
Rp5216
g1
(g5
S'[[\n:'
p5217
tp5218
Rp5219
g1
(g5
S'_\xa7\x9b:'
p5220
tp5221
Rp5222
g1
(g5
S'\x94\xee\xa69'
p5223
tp5224
Rp5225
g1
(g5
S'\x96\xce\xec\xb9'
p5226
tp5227
Rp5228
g1
(g5
S'`\xc1_:'
p5229
tp5230
Rp5231
g1
(g5
S'\x96sd\xb9'
p5232
tp5233
Rp5234
g1
(g5
S'\x92t\x85\xba'
p5235
tp5236
Rp5237
g1
(g5
S'\xd73\x08\xba'
p5238
tp5239
Rp5240
g1
(g5
S'\xf6uI:'
p5241
tp5242
Rp5243
g1
(g5
S'\xa0(P\xba'
p5244
tp5245
Rp5246
g1
(g5
S'\x9b\xdf\x9f:'
p5247
tp5248
Rp5249
g1
(g5
S'*\xeeM:'
p5250
tp5251
Rp5252
g1
(g5
S'\x8a\xf3\x11\xbb'
p5253
tp5254
Rp5255
g1
(g5
S'\xdec\x17;'
p5256
tp5257
Rp5258
g1
(g5
S'e\x08\xe3\xba'
p5259
tp5260
Rp5261
g1
(g5
S'eN\x01\xbb'
p5262
tp5263
Rp5264
g1
(g5
S'\xbb;u\xba'
p5265
tp5266
Rp5267
g1
(g5
S'j\xe7Z\xba'
p5268
tp5269
Rp5270
g1
(g5
S'\x1f\xd6\x98:'
p5271
tp5272
Rp5273
g1
(g5
S'\x97\x83\x91\xba'
p5274
tp5275
Rp5276
g1
(g5
S'"\xd7\x8b\xba'
p5277
tp5278
Rp5279
g1
(g5
S'\x124\x1e\xbb'
p5280
tp5281
Rp5282
g1
(g5
S'_\x9e6\xba'
p5283
tp5284
Rp5285
g1
(g5
S'S\xffS\xbb'
p5286
tp5287
Rp5288
g1
(g5
S'x\xc6\x899'
p5289
tp5290
Rp5291
g1
(g5
S'\xea_\xd19'
p5292
tp5293
Rp5294
g1
(g5
S'\xb3 \xa3\xba'
p5295
tp5296
Rp5297
g1
(g5
S'3_\xcd\xba'
p5298
tp5299
Rp5300
g1
(g5
S'\x9a\xcc\x80\xba'
p5301
tp5302
Rp5303
g1
(g5
S'\xba]\x9c\xba'
p5304
tp5305
Rp5306
g1
(g5
S'V\xbb\x07\xbb'
p5307
tp5308
Rp5309
g1
(g5
S'\xf1\x84\x1c;'
p5310
tp5311
Rp5312
g1
(g5
S'\x15\x9e\xbf:'
p5313
tp5314
Rp5315
g1
(g5
S'\xcd \xd59'
p5316
tp5317
Rp5318
g1
(g5
S'\x1d`\xd0\xba'
p5319
tp5320
Rp5321
g1
(g5
S'\x8e\x90\xbd:'
p5322
tp5323
Rp5324
g1
(g5
S'\xb5b\xdd9'
p5325
tp5326
Rp5327
g1
(g5
S'F0\xae\xba'
p5328
tp5329
Rp5330
g1
(g5
S'\x03r\x86\xba'
p5331
tp5332
Rp5333
g1
(g5
S'\xb5\xbf\x02\xbb'
p5334
tp5335
Rp5336
g1
(g5
S'V<~\xbb'
p5337
tp5338
Rp5339
g1
(g5
S'}\xb8\x1c:'
p5340
tp5341
Rp5342
g1
(g5
S'\x1eZ\x18\xbb'
p5343
tp5344
Rp5345
g1
(g5
S'\xdd-\x06\xbb'
p5346
tp5347
Rp5348
g1
(g5
S'n\x8d\x95:'
p5349
tp5350
Rp5351
g1
(g5
S'\xc0\x13+\xb9'
p5352
tp5353
Rp5354
g1
(g5
S'V\x00;\xba'
p5355
tp5356
Rp5357
g1
(g5
S'\xfb\x07\xc3:'
p5358
tp5359
Rp5360
g1
(g5
S'ehT;'
p5361
tp5362
Rp5363
g1
(g5
S'\x93\xd7d\xb8'
p5364
tp5365
Rp5366
g1
(g5
S'\xb6\xc2\x89:'
p5367
tp5368
Rp5369
g1
(g5
S'\xf5\xd0k:'
p5370
tp5371
Rp5372
g1
(g5
S'k\xcbQ\xba'
p5373
tp5374
Rp5375
g1
(g5
S'`\xe1\xd8\xba'
p5376
tp5377
Rp5378
g1
(g5
S'\xe3U\xef8'
p5379
tp5380
Rp5381
g1
(g5
S'\xed\x16\xe0\xba'
p5382
tp5383
Rp5384
g1
(g5
S'Mh\xc5\xb8'
p5385
tp5386
Rp5387
g1
(g5
S'\xeeT\xd0:'
p5388
tp5389
Rp5390
g1
(g5
S'\xea\x9eF\xb9'
p5391
tp5392
Rp5393
g1
(g5
S'f7\xf1\xba'
p5394
tp5395
Rp5396
g1
(g5
S'\x8d\xd8\x10\xba'
p5397
tp5398
Rp5399
g1
(g5
S'N\xd4\x9c9'
p5400
tp5401
Rp5402
g1
(g5
S'pk\x869'
p5403
tp5404
Rp5405
g1
(g5
S'f488'
p5406
tp5407
Rp5408
g1
(g5
S's\xd3\x17\xb9'
p5409
tp5410
Rp5411
g1
(g5
S'\xfd_\r:'
p5412
tp5413
Rp5414
g1
(g5
S'\x9cd\xb6\xba'
p5415
tp5416
Rp5417
g1
(g5
S'\xa6\xd1\x17\xba'
p5418
tp5419
Rp5420
g1
(g5
S'\xe2\xa3\x91:'
p5421
tp5422
Rp5423
g1
(g5
S'\x05M\x9c\xba'
p5424
tp5425
Rp5426
g1
(g5
S'=\xee\xba\xba'
p5427
tp5428
Rp5429
g1
(g5
S's\xfb\x978'
p5430
tp5431
Rp5432
g1
(g5
S'\xf4\xeb\x19;'
p5433
tp5434
Rp5435
g1
(g5
S'\xd3\xfff:'
p5436
tp5437
Rp5438
g1
(g5
S'\x80\xdeH\xb9'
p5439
tp5440
Rp5441
tp5442
S'Go left'
p5443
s(g1
(g5
S'\x97\x93\x1d:'
p5444
tp5445
Rp5446
g1
(g5
S'\x1c\xca\x92:'
p5447
tp5448
Rp5449
g1
(g5
S"Y\xf9';"
p5450
tp5451
Rp5452
g1
(g5
S'\\\xa2\xef\xb9'
p5453
tp5454
Rp5455
g1
(g5
S'k\x93\xe7\xba'
p5456
tp5457
Rp5458
g1
(g5
S'\\\xeb\x03\xb9'
p5459
tp5460
Rp5461
g1
(g5
S'\xe4\xd6\x08\xbb'
p5462
tp5463
Rp5464
g1
(g5
S'\xad0\x05;'
p5465
tp5466
Rp5467
g1
(g5
S'\xd9`e:'
p5468
tp5469
Rp5470
g1
(g5
S'\t\xec\xfa:'
p5471
tp5472
Rp5473
g1
(g5
S'\xb7\x1f\x9d\xba'
p5474
tp5475
Rp5476
g1
(g5
S'$\xb3\x1b:'
p5477
tp5478
Rp5479
g1
(g5
S'\xf9^\xe4\xb9'
p5480
tp5481
Rp5482
g1
(g5
S'\xc0\xdbs\xb9'
p5483
tp5484
Rp5485
g1
(g5
S'\xde\x82\xbc:'
p5486
tp5487
Rp5488
g1
(g5
S'\xac\xcb\x00;'
p5489
tp5490
Rp5491
g1
(g5
S'\x13\x95\x00\xba'
p5492
tp5493
Rp5494
g1
(g5
S'U\x18\xa9:'
p5495
tp5496
Rp5497
g1
(g5
S'tr(:'
p5498
tp5499
Rp5500
g1
(g5
S'P\xd3$;'
p5501
tp5502
Rp5503
g1
(g5
S'lS\xa99'
p5504
tp5505
Rp5506
g1
(g5
S'H?\r;'
p5507
tp5508
Rp5509
g1
(g5
S'\xdf\x10V9'
p5510
tp5511
Rp5512
g1
(g5
S'\xfd\x1c\xae:'
p5513
tp5514
Rp5515
g1
(g5
S'\xe1\xf5\x02\xbb'
p5516
tp5517
Rp5518
g1
(g5
S'\x02\x85\xc49'
p5519
tp5520
Rp5521
g1
(g5
S'e\xab\xf6:'
p5522
tp5523
Rp5524
g1
(g5
S'y-~\xba'
p5525
tp5526
Rp5527
g1
(g5
S'\xa77\xed9'
p5528
tp5529
Rp5530
g1
(g5
S't\xe5\x949'
p5531
tp5532
Rp5533
g1
(g5
S'\x1eT\xd1\xb9'
p5534
tp5535
Rp5536
g1
(g5
S'*bY9'
p5537
tp5538
Rp5539
g1
(g5
S'\xec-9\xba'
p5540
tp5541
Rp5542
g1
(g5
S'e\xaa\xaf:'
p5543
tp5544
Rp5545
g1
(g5
S'\x15\x13P\xba'
p5546
tp5547
Rp5548
g1
(g5
S'\x99\x9dw\xb9'
p5549
tp5550
Rp5551
g1
(g5
S'\xdct\x82:'
p5552
tp5553
Rp5554
g1
(g5
S'\xba\xba\xb7\xba'
p5555
tp5556
Rp5557
g1
(g5
S'\xe3EJ:'
p5558
tp5559
Rp5560
g1
(g5
S'\xec~\xee\xb9'
p5561
tp5562
Rp5563
g1
(g5
S'\x1b\xa7\xf6\xba'
p5564
tp5565
Rp5566
g1
(g5
S'\xbcT\xd9\xba'
p5567
tp5568
Rp5569
g1
(g5
S'mP&\xbb'
p5570
tp5571
Rp5572
g1
(g5
S'\xc4\x85\xee:'
p5573
tp5574
Rp5575
g1
(g5
S'\x91\x90\xcb\xba'
p5576
tp5577
Rp5578
g1
(g5
S'\xf9\xc0S9'
p5579
tp5580
Rp5581
g1
(g5
S'\xc6\xe0\x82\xba'
p5582
tp5583
Rp5584
g1
(g5
S'H\x86O9'
p5585
tp5586
Rp5587
g1
(g5
S'wz\x9f\xba'
p5588
tp5589
Rp5590
g1
(g5
S'\xaeR\xf6\xb9'
p5591
tp5592
Rp5593
g1
(g5
S'j\xc4\xad:'
p5594
tp5595
Rp5596
g1
(g5
S'\x95\xe7\xe8\xba'
p5597
tp5598
Rp5599
g1
(g5
S'\xc1\xde\x0e9'
p5600
tp5601
Rp5602
g1
(g5
S'7W3\xbb'
p5603
tp5604
Rp5605
g1
(g5
S'\xf3\x8a":'
p5606
tp5607
Rp5608
g1
(g5
S'Zd\xbf\xba'
p5609
tp5610
Rp5611
g1
(g5
S'K-#:'
p5612
tp5613
Rp5614
g1
(g5
S',Z\xdd\xb9'
p5615
tp5616
Rp5617
g1
(g5
S'^\x90N:'
p5618
tp5619
Rp5620
g1
(g5
S'\xa5\xbd\xea\xba'
p5621
tp5622
Rp5623
g1
(g5
S'|\xe7n:'
p5624
tp5625
Rp5626
g1
(g5
S'\xd1\xd1\xda9'
p5627
tp5628
Rp5629
g1
(g5
S'\xfc\xa6\x9b\xb9'
p5630
tp5631
Rp5632
g1
(g5
S'\xbc\xc27\xba'
p5633
tp5634
Rp5635
g1
(g5
S'"+\x15\xba'
p5636
tp5637
Rp5638
g1
(g5
S'\xbc\xcf\x05\xbb'
p5639
tp5640
Rp5641
g1
(g5
S'v$\x95\xba'
p5642
tp5643
Rp5644
g1
(g5
S'-\x8a\x17\xba'
p5645
tp5646
Rp5647
g1
(g5
S'=6\x84:'
p5648
tp5649
Rp5650
g1
(g5
S'\x8ex\xe2:'
p5651
tp5652
Rp5653
g1
(g5
S'|\xbfn9'
p5654
tp5655
Rp5656
g1
(g5
S'\x0b\x12\x99\xba'
p5657
tp5658
Rp5659
g1
(g5
S'\x136\xaa:'
p5660
tp5661
Rp5662
g1
(g5
S'J\x1a\xb8:'
p5663
tp5664
Rp5665
g1
(g5
S'Ej\xea\xb9'
p5666
tp5667
Rp5668
g1
(g5
S'SO\x10;'
p5669
tp5670
Rp5671
g1
(g5
S'K2N:'
p5672
tp5673
Rp5674
g1
(g5
S'^\xff\x14\xb9'
p5675
tp5676
Rp5677
g1
(g5
S'>>\x85\xba'
p5678
tp5679
Rp5680
g1
(g5
S'\x94\x91g9'
p5681
tp5682
Rp5683
g1
(g5
S'@\xbb\xa1\xba'
p5684
tp5685
Rp5686
g1
(g5
S'\x04\xa5\x90\xb8'
p5687
tp5688
Rp5689
g1
(g5
S'\xec\x8ej:'
p5690
tp5691
Rp5692
g1
(g5
S'4\xfc\x18:'
p5693
tp5694
Rp5695
g1
(g5
S'\xc3p\xe2\xb9'
p5696
tp5697
Rp5698
g1
(g5
S'\x0bg\x99\xba'
p5699
tp5700
Rp5701
g1
(g5
S'\xe4i\x8a9'
p5702
tp5703
Rp5704
g1
(g5
S'\x1a)\xc6\xb9'
p5705
tp5706
Rp5707
g1
(g5
S'\xf9f-:'
p5708
tp5709
Rp5710
g1
(g5
S'\xce\xf4\xfe9'
p5711
tp5712
Rp5713
g1
(g5
S'\x92\x00l:'
p5714
tp5715
Rp5716
g1
(g5
S'\x8e`\xcd\xb8'
p5717
tp5718
Rp5719
g1
(g5
S'\xd9\xc7i\xba'
p5720
tp5721
Rp5722
g1
(g5
S'kP\xe6:'
p5723
tp5724
Rp5725
g1
(g5
S'\xd7\xbb\x04\xbb'
p5726
tp5727
Rp5728
g1
(g5
S'W\xc2\xf6\xba'
p5729
tp5730
Rp5731
g1
(g5
S'"3g\xb9'
p5732
tp5733
Rp5734
g1
(g5
S'b\x1d\x99:'
p5735
tp5736
Rp5737
g1
(g5
S'z=\xa3\xba'
p5738
tp5739
Rp5740
g1
(g5
S'\xab5\x06\xbb'
p5741
tp5742
Rp5743
tp5744
S'Hello Klauba'
p5745
s(g1
(g5
S'\xd8rn:'
p5746
tp5747
Rp5748
g1
(g5
S'\xb2\xd8d\xba'
p5749
tp5750
Rp5751
g1
(g5
S'\xb7t\x9c:'
p5752
tp5753
Rp5754
g1
(g5
S'\xcf\xca\xf3\xb9'
p5755
tp5756
Rp5757
g1
(g5
S'Pw-\xba'
p5758
tp5759
Rp5760
g1
(g5
S'\xfcv\x1a\xba'
p5761
tp5762
Rp5763
g1
(g5
S'I\x84\xeb8'
p5764
tp5765
Rp5766
g1
(g5
S'\xbcYI\xb8'
p5767
tp5768
Rp5769
g1
(g5
S'^p\xfb:'
p5770
tp5771
Rp5772
g1
(g5
S'\x19\xf9\xc5:'
p5773
tp5774
Rp5775
g1
(g5
S'\xf7\xaf\xb0\xba'
p5776
tp5777
Rp5778
g1
(g5
S'\xb8\x85\xbe9'
p5779
tp5780
Rp5781
g1
(g5
S'\x9e\xd69\xba'
p5782
tp5783
Rp5784
g1
(g5
S'\x80`/:'
p5785
tp5786
Rp5787
g1
(g5
S'\x8f\xb1\x128'
p5788
tp5789
Rp5790
g1
(g5
S'\xed\x19\x00;'
p5791
tp5792
Rp5793
g1
(g5
S'\xab,=:'
p5794
tp5795
Rp5796
g1
(g5
S'\xc0\\\xdf:'
p5797
tp5798
Rp5799
g1
(g5
S'\xcb\xf2\x9a:'
p5800
tp5801
Rp5802
g1
(g5
S'\x0b\x8f\xd18'
p5803
tp5804
Rp5805
g1
(g5
S'\xdc\x06\xcd9'
p5806
tp5807
Rp5808
g1
(g5
S'(\xab\xa5:'
p5809
tp5810
Rp5811
g1
(g5
S'`\xa8\xda\xb9'
p5812
tp5813
Rp5814
g1
(g5
S'\xb7\xe3\xb5:'
p5815
tp5816
Rp5817
g1
(g5
S'\xa0\x18\x82\xba'
p5818
tp5819
Rp5820
g1
(g5
S'ph\x83\xba'
p5821
tp5822
Rp5823
g1
(g5
S'\xa8\xd7\xb09'
p5824
tp5825
Rp5826
g1
(g5
S'Q\xa1\x05\xba'
p5827
tp5828
Rp5829
g1
(g5
S'\xc1\x99\xa8:'
p5830
tp5831
Rp5832
g1
(g5
S'\x86\xcfN:'
p5833
tp5834
Rp5835
g1
(g5
S'\xec\xea\xd1\xba'
p5836
tp5837
Rp5838
g1
(g5
S'\xa2\xc9\x8d\xba'
p5839
tp5840
Rp5841
g1
(g5
S'\xf1\x0e\x1f:'
p5842
tp5843
Rp5844
g1
(g5
S'y\xeeJ\xb9'
p5845
tp5846
Rp5847
g1
(g5
S'"\xd7 \xbb'
p5848
tp5849
Rp5850
g1
(g5
S'\x13\x1d\xa1\xb8'
p5851
tp5852
Rp5853
g1
(g5
S'^\x86b\xba'
p5854
tp5855
Rp5856
g1
(g5
S'\\\x1d\x10\xb9'
p5857
tp5858
Rp5859
g1
(g5
S'\x03\xbf\xac:'
p5860
tp5861
Rp5862
g1
(g5
S'R\xabP:'
p5863
tp5864
Rp5865
g1
(g5
S'\x8fp\x13\xba'
p5866
tp5867
Rp5868
g1
(g5
S'\x82\x13\x03\xb9'
p5869
tp5870
Rp5871
g1
(g5
S'I\x8c\xd4\xba'
p5872
tp5873
Rp5874
g1
(g5
S'\xf7v\x1f:'
p5875
tp5876
Rp5877
g1
(g5
S'\x8f\xe2\x9d\xb9'
p5878
tp5879
Rp5880
g1
(g5
S'd7F\xba'
p5881
tp5882
Rp5883
g1
(g5
S'L\xbe\x1f:'
p5884
tp5885
Rp5886
g1
(g5
S'\xadN\xe1:'
p5887
tp5888
Rp5889
g1
(g5
S'\xfe\xb6r9'
p5890
tp5891
Rp5892
g1
(g5
S'\x94\xebX:'
p5893
tp5894
Rp5895
g1
(g5
S'|e\x00\xba'
p5896
tp5897
Rp5898
g1
(g5
S'\x88V\x03\xba'
p5899
tp5900
Rp5901
g1
(g5
S'\xf1\x82\x0c9'
p5902
tp5903
Rp5904
g1
(g5
S'7]\x83\xba'
p5905
tp5906
Rp5907
g1
(g5
S'\xde\x0b\xa6\xb8'
p5908
tp5909
Rp5910
g1
(g5
S'\x98\xb4\x02\xba'
p5911
tp5912
Rp5913
g1
(g5
S'\x97\xc8\x908'
p5914
tp5915
Rp5916
g1
(g5
S'\x92\xca\xe6\xb9'
p5917
tp5918
Rp5919
g1
(g5
S"'\x9b8:"
p5920
tp5921
Rp5922
g1
(g5
S':\x05\xdf\xb9'
p5923
tp5924
Rp5925
g1
(g5
S'\xc7\x87\xa2\xb9'
p5926
tp5927
Rp5928
g1
(g5
S'\xb8/\x839'
p5929
tp5930
Rp5931
g1
(g5
S'\xff\xff\xd2\xb9'
p5932
tp5933
Rp5934
g1
(g5
S'\x8f\xdd\xba\xba'
p5935
tp5936
Rp5937
g1
(g5
S'\x85\xc3\x19\xb9'
p5938
tp5939
Rp5940
g1
(g5
S'<\x8b97'
p5941
tp5942
Rp5943
g1
(g5
S'\xc9\x15\xa1\xba'
p5944
tp5945
Rp5946
g1
(g5
S'\x1bD\x95:'
p5947
tp5948
Rp5949
g1
(g5
S'Q\xf2\xf59'
p5950
tp5951
Rp5952
g1
(g5
S'\xaf\xb7\xc7\xb9'
p5953
tp5954
Rp5955
g1
(g5
S'\x95\x13\r\xba'
p5956
tp5957
Rp5958
g1
(g5
S'\xcd\xba\xd1\xb9'
p5959
tp5960
Rp5961
g1
(g5
S'\x88B;\xba'
p5962
tp5963
Rp5964
g1
(g5
S'\xda\xf7\x069'
p5965
tp5966
Rp5967
g1
(g5
S'\xf7\xd1;\xba'
p5968
tp5969
Rp5970
g1
(g5
S'\xea\x9d\xcd:'
p5971
tp5972
Rp5973
g1
(g5
S'm\x0ce9'
p5974
tp5975
Rp5976
g1
(g5
S'\xbf\xe4\x97:'
p5977
tp5978
Rp5979
g1
(g5
S'aW\xb1\xb8'
p5980
tp5981
Rp5982
g1
(g5
S'Ko\xde9'
p5983
tp5984
Rp5985
g1
(g5
S'U{\xa2\xb8'
p5986
tp5987
Rp5988
g1
(g5
S'\x8f\xb3\x90:'
p5989
tp5990
Rp5991
g1
(g5
S'%\xe1\x17:'
p5992
tp5993
Rp5994
g1
(g5
S'\xe8/\x87\xba'
p5995
tp5996
Rp5997
g1
(g5
S'\x1a\x0b/:'
p5998
tp5999
Rp6000
g1
(g5
S':\xca\xa19'
p6001
tp6002
Rp6003
g1
(g5
S'\x84\xc4\x7f\xba'
p6004
tp6005
Rp6006
g1
(g5
S'\xc0P\xa7\xb9'
p6007
tp6008
Rp6009
g1
(g5
S'W>\xeb:'
p6010
tp6011
Rp6012
g1
(g5
S'WPh:'
p6013
tp6014
Rp6015
g1
(g5
S'\xd4U\x98\xba'
p6016
tp6017
Rp6018
g1
(g5
S'\x98w\x8d:'
p6019
tp6020
Rp6021
g1
(g5
S'\xc50\n:'
p6022
tp6023
Rp6024
g1
(g5
S'\xe1D\x90:'
p6025
tp6026
Rp6027
g1
(g5
S'k)r\xba'
p6028
tp6029
Rp6030
g1
(g5
S'L@\xae\xba'
p6031
tp6032
Rp6033
g1
(g5
S'\x80<\xd39'
p6034
tp6035
Rp6036
g1
(g5
S'K\xc3,:'
p6037
tp6038
Rp6039
g1
(g5
S'\x8d\x83c\xba'
p6040
tp6041
Rp6042
g1
(g5
S'\xd1\xb5\xe7\xb8'
p6043
tp6044
Rp6045
tp6046
S'Klauba, what room am I in?'
p6047
s(g1
(g5
S'\xfcrF:'
p6048
tp6049
Rp6050
g1
(g5
S'\xf5=7\xba'
p6051
tp6052
Rp6053
g1
(g5
S'{a\x00;'
p6054
tp6055
Rp6056
g1
(g5
S'\x074\x87\xba'
p6057
tp6058
Rp6059
g1
(g5
S';0\x1d\xbb'
p6060
tp6061
Rp6062
g1
(g5
S'\x00\xf5h\xba'
p6063
tp6064
Rp6065
g1
(g5
S'\xa6l\x9e\xba'
p6066
tp6067
Rp6068
g1
(g5
S']\x86\x0e:'
p6069
tp6070
Rp6071
g1
(g5
S'\x110\x1c;'
p6072
tp6073
Rp6074
g1
(g5
S'e\xa8i;'
p6075
tp6076
Rp6077
g1
(g5
S'\x84\xcf\x1f\xba'
p6078
tp6079
Rp6080
g1
(g5
S'\x15v\x8e:'
p6081
tp6082
Rp6083
g1
(g5
S'\xdd\x03D\xba'
p6084
tp6085
Rp6086
g1
(g5
S'\xefK\x7f:'
p6087
tp6088
Rp6089
g1
(g5
S'\xcd\x84\xae9'
p6090
tp6091
Rp6092
g1
(g5
S'\xc3\x04(;'
p6093
tp6094
Rp6095
g1
(g5
S'\x8dS\xcc\xb9'
p6096
tp6097
Rp6098
g1
(g5
S'\xeb`\xf0:'
p6099
tp6100
Rp6101
g1
(g5
S'\x90\xf6\xb1:'
p6102
tp6103
Rp6104
g1
(g5
S'c\xf9\r;'
p6105
tp6106
Rp6107
g1
(g5
S'\x8b\xbd\xfd8'
p6108
tp6109
Rp6110
g1
(g5
S'\x14\xe0\x1c;'
p6111
tp6112
Rp6113
g1
(g5
S'\x1f\t\xca:'
p6114
tp6115
Rp6116
g1
(g5
S'\xc0QC;'
p6117
tp6118
Rp6119
g1
(g5
S'"v \xbb'
p6120
tp6121
Rp6122
g1
(g5
S'M\x83I\xba'
p6123
tp6124
Rp6125
g1
(g5
S'g\xff\xf2:'
p6126
tp6127
Rp6128
g1
(g5
S'\x87X:\xba'
p6129
tp6130
Rp6131
g1
(g5
S'\xd0X3\xb9'
p6132
tp6133
Rp6134
g1
(g5
S'U\xef\xcc9'
p6135
tp6136
Rp6137
g1
(g5
S'\x14\xab\x87\xba'
p6138
tp6139
Rp6140
g1
(g5
S'\xff\x15\t:'
p6141
tp6142
Rp6143
g1
(g5
S'\x1f}\x029'
p6144
tp6145
Rp6146
g1
(g5
S'\xd4U\x949'
p6147
tp6148
Rp6149
g1
(g5
S'\xa7-\x11\xbb'
p6150
tp6151
Rp6152
g1
(g5
S',\xa6\xa8\xb9'
p6153
tp6154
Rp6155
g1
(g5
S'b>)\xba'
p6156
tp6157
Rp6158
g1
(g5
S'@"\xd1\xb9'
p6159
tp6160
Rp6161
g1
(g5
S'\xc3\x86\xa0:'
p6162
tp6163
Rp6164
g1
(g5
S'\xef7\xc2\xb9'
p6165
tp6166
Rp6167
g1
(g5
S'y\xb8\x8e\xba'
p6168
tp6169
Rp6170
g1
(g5
S'=dY9'
p6171
tp6172
Rp6173
g1
(g5
S'\xbb\xa4P\xbb'
p6174
tp6175
Rp6176
g1
(g5
S'H\x0e\r;'
p6177
tp6178
Rp6179
g1
(g5
S'M:\x18\xba'
p6180
tp6181
Rp6182
g1
(g5
S'\xbb\x83\xce\xb9'
p6183
tp6184
Rp6185
g1
(g5
S'\xf0\x1f\xba9'
p6186
tp6187
Rp6188
g1
(g5
S'\xadL[:'
p6189
tp6190
Rp6191
g1
(g5
S'M\xfb\x9a9'
p6192
tp6193
Rp6194
g1
(g5
S'\x11\x9f9:'
p6195
tp6196
Rp6197
g1
(g5
S'O\xa7\xba9'
p6198
tp6199
Rp6200
g1
(g5
S'%}!\xbb'
p6201
tp6202
Rp6203
g1
(g5
S'\xaf(\x93\xb9'
p6204
tp6205
Rp6206
g1
(g5
S'\x0et\x81\xbb'
p6207
tp6208
Rp6209
g1
(g5
S'+*\xd8:'
p6210
tp6211
Rp6212
g1
(g5
S'40\xa39'
p6213
tp6214
Rp6215
g1
(g5
S'p\xe7\x83:'
p6216
tp6217
Rp6218
g1
(g5
S'`\xd0\x0c\xba'
p6219
tp6220
Rp6221
g1
(g5
S'a\xe4\xbb:'
p6222
tp6223
Rp6224
g1
(g5
S'\x0c\x90[\xba'
p6225
tp6226
Rp6227
g1
(g5
S'/\x0b\xed9'
p6228
tp6229
Rp6230
g1
(g5
S'\t\x18\x06:'
p6231
tp6232
Rp6233
g1
(g5
S'P\xb5\xe0:'
p6234
tp6235
Rp6236
g1
(g5
S'\x95\x05\xad7'
p6237
tp6238
Rp6239
g1
(g5
S'\xb53C:'
p6240
tp6241
Rp6242
g1
(g5
S'\x01\xf5x\xb9'
p6243
tp6244
Rp6245
g1
(g5
S'\x99\xda\x0c\xbb'
p6246
tp6247
Rp6248
g1
(g5
S'\x7f\x04\xa7:'
p6249
tp6250
Rp6251
g1
(g5
S'\xad\xc2\xb9:'
p6252
tp6253
Rp6254
g1
(g5
S'\x8ba\xc79'
p6255
tp6256
Rp6257
g1
(g5
S'\xe5\xf9\xb58'
p6258
tp6259
Rp6260
g1
(g5
S'@S~8'
p6261
tp6262
Rp6263
g1
(g5
S'\x9d\xf1\x03\xba'
p6264
tp6265
Rp6266
g1
(g5
S'\x9c\xb2\x9a\xb9'
p6267
tp6268
Rp6269
g1
(g5
S'\x17p\xae\xb9'
p6270
tp6271
Rp6272
g1
(g5
S'~\xd8\t;'
p6273
tp6274
Rp6275
g1
(g5
S'\xcd\x8aW:'
p6276
tp6277
Rp6278
g1
(g5
S'bY\x079'
p6279
tp6280
Rp6281
g1
(g5
S'\xb10O\xba'
p6282
tp6283
Rp6284
g1
(g5
S'\xe9L2:'
p6285
tp6286
Rp6287
g1
(g5
S'`v\xaf\xba'
p6288
tp6289
Rp6290
g1
(g5
S'\x8b>6:'
p6291
tp6292
Rp6293
g1
(g5
S'p\x99\xf69'
p6294
tp6295
Rp6296
g1
(g5
S'\xb4w@\xba'
p6297
tp6298
Rp6299
g1
(g5
S'8Z}\xb9'
p6300
tp6301
Rp6302
g1
(g5
S'\x1bP=9'
p6303
tp6304
Rp6305
g1
(g5
S'H\xc2\xdb9'
p6306
tp6307
Rp6308
g1
(g5
S'T\xfa\xa2\xba'
p6309
tp6310
Rp6311
g1
(g5
S'\xfbkQ:'
p6312
tp6313
Rp6314
g1
(g5
S'\x89\xe7!:'
p6315
tp6316
Rp6317
g1
(g5
S'3j\x07\xba'
p6318
tp6319
Rp6320
g1
(g5
S'%\xc6\xf29'
p6321
tp6322
Rp6323
g1
(g5
S'[\xf2\xfd9'
p6324
tp6325
Rp6326
g1
(g5
S'L\xcb\x04;'
p6327
tp6328
Rp6329
g1
(g5
S'h\n\x1e\xbb'
p6330
tp6331
Rp6332
g1
(g5
S'\xeb\xa3\x1c\xbb'
p6333
tp6334
Rp6335
g1
(g5
S'\x89\x84\x1f:'
p6336
tp6337
Rp6338
g1
(g5
S'F>&:'
p6339
tp6340
Rp6341
g1
(g5
S'S\x1e"\xbb'
p6342
tp6343
Rp6344
g1
(g5
S'\x89a!\xbb'
p6345
tp6346
Rp6347
tp6348
S'Hi Klauba'
p6349
s(g1
(g5
S'\x81P$:'
p6350
tp6351
Rp6352
g1
(g5
S'\xcd3\xb6\xb9'
p6353
tp6354
Rp6355
g1
(g5
S'\xa9\x9f\xe0:'
p6356
tp6357
Rp6358
g1
(g5
S'\xa0\x01!\xba'
p6359
tp6360
Rp6361
g1
(g5
S'\x8dQ]:'
p6362
tp6363
Rp6364
g1
(g5
S'\x8ccP8'
p6365
tp6366
Rp6367
g1
(g5
S'\x04Xx:'
p6368
tp6369
Rp6370
g1
(g5
S'\xcc[\x07:'
p6371
tp6372
Rp6373
g1
(g5
S'\xfb)\xa0:'
p6374
tp6375
Rp6376
g1
(g5
S'\x94\x93\x90\xba'
p6377
tp6378
Rp6379
g1
(g5
S'\xbdG\x18\xbb'
p6380
tp6381
Rp6382
g1
(g5
S'\xe7\xear\xba'
p6383
tp6384
Rp6385
g1
(g5
S'\xd8s%\xba'
p6386
tp6387
Rp6388
g1
(g5
S'\xbb\xcd\x9e\xb9'
p6389
tp6390
Rp6391
g1
(g5
S'\x84\x05\x1f\xbb'
p6392
tp6393
Rp6394
g1
(g5
S's\t\x03;'
p6395
tp6396
Rp6397
g1
(g5
S'b\x87\xe0:'
p6398
tp6399
Rp6400
g1
(g5
S'\x99\x19\x0f;'
p6401
tp6402
Rp6403
g1
(g5
S'\x00\x89z:'
p6404
tp6405
Rp6406
g1
(g5
S'sS\x9f9'
p6407
tp6408
Rp6409
g1
(g5
S'\xee\xce\xe48'
p6410
tp6411
Rp6412
g1
(g5
S'\xbc\xac\x958'
p6413
tp6414
Rp6415
g1
(g5
S'\xfbQ\xfd\xba'
p6416
tp6417
Rp6418
g1
(g5
S'\\~\xa0:'
p6419
tp6420
Rp6421
g1
(g5
S'+d_8'
p6422
tp6423
Rp6424
g1
(g5
S'dpe:'
p6425
tp6426
Rp6427
g1
(g5
S'xq\xaa\xba'
p6428
tp6429
Rp6430
g1
(g5
S'\x04\xd9\x02;'
p6431
tp6432
Rp6433
g1
(g5
S'\xf3\x81\xd0:'
p6434
tp6435
Rp6436
g1
(g5
S'@>\x02;'
p6437
tp6438
Rp6439
g1
(g5
S'\x94\xab\x01:'
p6440
tp6441
Rp6442
g1
(g5
S'\xfb\xffZ\xbb'
p6443
tp6444
Rp6445
g1
(g5
S'<?W9'
p6446
tp6447
Rp6448
g1
(g5
S'\xc5\xfb\x86\xb9'
p6449
tp6450
Rp6451
g1
(g5
S"'TR9"
p6452
tp6453
Rp6454
g1
(g5
S'I!m\xb9'
p6455
tp6456
Rp6457
g1
(g5
S'\x88\xdb\x8f\xba'
p6458
tp6459
Rp6460
g1
(g5
S'\x8b0\xfb\xba'
p6461
tp6462
Rp6463
g1
(g5
S'\xa81\x13;'
p6464
tp6465
Rp6466
g1
(g5
S'7Y\xed9'
p6467
tp6468
Rp6469
g1
(g5
S'\xa4y\x17\xba'
p6470
tp6471
Rp6472
g1
(g5
S'\xa9\xa4\xb4\xb9'
p6473
tp6474
Rp6475
g1
(g5
S't\xe5\xbf:'
p6476
tp6477
Rp6478
g1
(g5
S'\xe3\xbf\x9d\xba'
p6479
tp6480
Rp6481
g1
(g5
S'dI\xe8\xb9'
p6482
tp6483
Rp6484
g1
(g5
S'[\xda-\xb9'
p6485
tp6486
Rp6487
g1
(g5
S'"L#:'
p6488
tp6489
Rp6490
g1
(g5
S'\xe3\x04\xe3:'
p6491
tp6492
Rp6493
g1
(g5
S'\xc8\x00;\xba'
p6494
tp6495
Rp6496
g1
(g5
S'\xab$\x8d9'
p6497
tp6498
Rp6499
g1
(g5
S'<\xcf\xc59'
p6500
tp6501
Rp6502
g1
(g5
S'\x04\xf3\xc5:'
p6503
tp6504
Rp6505
g1
(g5
S'\xa3\xf0\xb3:'
p6506
tp6507
Rp6508
g1
(g5
S'\xe2U\xfd:'
p6509
tp6510
Rp6511
g1
(g5
S'Z%\xdc\xba'
p6512
tp6513
Rp6514
g1
(g5
S'S84\xbb'
p6515
tp6516
Rp6517
g1
(g5
S'\x94S\x16:'
p6518
tp6519
Rp6520
g1
(g5
S'2\x0c.:'
p6521
tp6522
Rp6523
g1
(g5
S'g\x9es:'
p6524
tp6525
Rp6526
g1
(g5
S'\\\xd1\x06\xb9'
p6527
tp6528
Rp6529
g1
(g5
S'8\xe2\xd39'
p6530
tp6531
Rp6532
g1
(g5
S'\x94\xa7\xd59'
p6533
tp6534
Rp6535
g1
(g5
S'0\xe2E\xbb'
p6536
tp6537
Rp6538
g1
(g5
S'[2\x1a\xbb'
p6539
tp6540
Rp6541
g1
(g5
S'\x1c3}\xba'
p6542
tp6543
Rp6544
g1
(g5
S'=\xf9M\xba'
p6545
tp6546
Rp6547
g1
(g5
S'\x9fE\x86:'
p6548
tp6549
Rp6550
g1
(g5
S'\xc0\xf3)\xb8'
p6551
tp6552
Rp6553
g1
(g5
S'd\xe4*\xba'
p6554
tp6555
Rp6556
g1
(g5
S'\x92\tJ\xba'
p6557
tp6558
Rp6559
g1
(g5
S'\xca\x8db:'
p6560
tp6561
Rp6562
g1
(g5
S'\xe3p\xa6\xba'
p6563
tp6564
Rp6565
g1
(g5
S'\xb1\x99\xb1:'
p6566
tp6567
Rp6568
g1
(g5
S'd\x1b\x029'
p6569
tp6570
Rp6571
g1
(g5
S'\xd4\x00\xdb:'
p6572
tp6573
Rp6574
g1
(g5
S'\xdc[\xa9:'
p6575
tp6576
Rp6577
g1
(g5
S'9\xba\x86\xb7'
p6578
tp6579
Rp6580
g1
(g5
S'\x9cX\xfc:'
p6581
tp6582
Rp6583
g1
(g5
S'\x8e.\xab:'
p6584
tp6585
Rp6586
g1
(g5
S'\xe2\xa0\xef9'
p6587
tp6588
Rp6589
g1
(g5
S'cU\x8f9'
p6590
tp6591
Rp6592
g1
(g5
S'H(\x1c:'
p6593
tp6594
Rp6595
g1
(g5
S'\xdd?(:'
p6596
tp6597
Rp6598
g1
(g5
S'\x8c_\xf2\xb9'
p6599
tp6600
Rp6601
g1
(g5
S'wA\xe7:'
p6602
tp6603
Rp6604
g1
(g5
S'\x97\x17o:'
p6605
tp6606
Rp6607
g1
(g5
S'Z\x11N\xbb'
p6608
tp6609
Rp6610
g1
(g5
S'\xd1n\xa8:'
p6611
tp6612
Rp6613
g1
(g5
S'\xc9\x046;'
p6614
tp6615
Rp6616
g1
(g5
S'\x94\xa8%\xb9'
p6617
tp6618
Rp6619
g1
(g5
S'$\xc7\xf79'
p6620
tp6621
Rp6622
g1
(g5
S'\xb9i\xe4:'
p6623
tp6624
Rp6625
g1
(g5
S'NUy\xb9'
p6626
tp6627
Rp6628
g1
(g5
S'\x11f\x17;'
p6629
tp6630
Rp6631
g1
(g5
S'\xca\xf6\xdd\xb9'
p6632
tp6633
Rp6634
g1
(g5
S'\xbb{#9'
p6635
tp6636
Rp6637
g1
(g5
S'\xbb\xa7d\xba'
p6638
tp6639
Rp6640
g1
(g5
S'Y7\x00;'
p6641
tp6642
Rp6643
g1
(g5
S'\xb2\xed\xc9:'
p6644
tp6645
Rp6646
g1
(g5
S'\xcb\x87=;'
p6647
tp6648
Rp6649
tp6650
S'go to room 2336'
p6651
s(g1
(g5
S'\xe0\xafA\xba'
p6652
tp6653
Rp6654
g1
(g5
S'\xcb\x08_\xba'
p6655
tp6656
Rp6657
g1
(g5
S'\x81\x08\xff:'
p6658
tp6659
Rp6660
g1
(g5
S'\xfb\xeav\xb8'
p6661
tp6662
Rp6663
g1
(g5
S'\xad\x98!\xb9'
p6664
tp6665
Rp6666
g1
(g5
S'\xb5\x96~9'
p6667
tp6668
Rp6669
g1
(g5
S'\x82\xf1\x8b9'
p6670
tp6671
Rp6672
g1
(g5
S'\xe0V\x198'
p6673
tp6674
Rp6675
g1
(g5
S'\xa7R\xe2:'
p6676
tp6677
Rp6678
g1
(g5
S'A.\x8a:'
p6679
tp6680
Rp6681
g1
(g5
S'\xe4\xdc\xb4\xba'
p6682
tp6683
Rp6684
g1
(g5
S'\x053y\xb8'
p6685
tp6686
Rp6687
g1
(g5
S'\xf7\xb7\x1e\xba'
p6688
tp6689
Rp6690
g1
(g5
S'_h7\xba'
p6691
tp6692
Rp6693
g1
(g5
S'-%\xdc\xb9'
p6694
tp6695
Rp6696
g1
(g5
S'\xb4I\xd8:'
p6697
tp6698
Rp6699
g1
(g5
S'\xb4\x86%:'
p6700
tp6701
Rp6702
g1
(g5
S'\x1f~\x8b:'
p6703
tp6704
Rp6705
g1
(g5
S'\xe0Z\xd09'
p6706
tp6707
Rp6708
g1
(g5
S'\xb1\xb8\xf99'
p6709
tp6710
Rp6711
g1
(g5
S'xN\xea9'
p6712
tp6713
Rp6714
g1
(g5
S'\xe5\xcbh:'
p6715
tp6716
Rp6717
g1
(g5
S'w\x14\x9d\xb9'
p6718
tp6719
Rp6720
g1
(g5
S'\xe8GG9'
p6721
tp6722
Rp6723
g1
(g5
S'\xc3\x01w\xba'
p6724
tp6725
Rp6726
g1
(g5
S'\xe0"\x948'
p6727
tp6728
Rp6729
g1
(g5
S'\xb0\x07\xae6'
p6730
tp6731
Rp6732
g1
(g5
S'i\x1e\xf3\xb9'
p6733
tp6734
Rp6735
g1
(g5
S'\xe4\x97\xc29'
p6736
tp6737
Rp6738
g1
(g5
S'\xcd\xa4~:'
p6739
tp6740
Rp6741
g1
(g5
S'9V\x94\xba'
p6742
tp6743
Rp6744
g1
(g5
S'\xd7i\xbe\xba'
p6745
tp6746
Rp6747
g1
(g5
S'\x0b\xb6\x8f\xb9'
p6748
tp6749
Rp6750
g1
(g5
S'=\xd04:'
p6751
tp6752
Rp6753
g1
(g5
S'X\x84\xb0\xba'
p6754
tp6755
Rp6756
g1
(g5
S'\xb8\xc2\x1f:'
p6757
tp6758
Rp6759
g1
(g5
S'\x90\x89\xbc\xb9'
p6760
tp6761
Rp6762
g1
(g5
S'\xb0\x12d\xba'
p6763
tp6764
Rp6765
g1
(g5
S'Gh\xde:'
p6766
tp6767
Rp6768
g1
(g5
S'\xd7\xac\xb39'
p6769
tp6770
Rp6771
g1
(g5
S'\x88\xe6D\xba'
p6772
tp6773
Rp6774
g1
(g5
S'\x08\xef\xfa\xb8'
p6775
tp6776
Rp6777
g1
(g5
S'4\x819\xba'
p6778
tp6779
Rp6780
g1
(g5
S'\xb9c\n:'
p6781
tp6782
Rp6783
g1
(g5
S'\x95q_\xb8'
p6784
tp6785
Rp6786
g1
(g5
S'\xf3R\x86\xba'
p6787
tp6788
Rp6789
g1
(g5
S'\x8b\x15\xcd7'
p6790
tp6791
Rp6792
g1
(g5
S'\xac\xa3G:'
p6793
tp6794
Rp6795
g1
(g5
S'o\xa4&\xba'
p6796
tp6797
Rp6798
g1
(g5
S'WPW:'
p6799
tp6800
Rp6801
g1
(g5
S'\xd9\xbc\x1e\xba'
p6802
tp6803
Rp6804
g1
(g5
S'\xedR\x9e\xba'
p6805
tp6806
Rp6807
g1
(g5
S'A\x00\x07\xba'
p6808
tp6809
Rp6810
g1
(g5
S'\xd7\x12\xc3\xb9'
p6811
tp6812
Rp6813
g1
(g5
S'k\x8am\xba'
p6814
tp6815
Rp6816
g1
(g5
S'\xf9\x12\x90\xba'
p6817
tp6818
Rp6819
g1
(g5
S'\xb5\xc5\xbb:'
p6820
tp6821
Rp6822
g1
(g5
S'\x01e\xb79'
p6823
tp6824
Rp6825
g1
(g5
S'X\x1e\x0e:'
p6826
tp6827
Rp6828
g1
(g5
S'D\xa1\x9c\xba'
p6829
tp6830
Rp6831
g1
(g5
S'T\x04\xe8\xb8'
p6832
tp6833
Rp6834
g1
(g5
S'\xc9\n/:'
p6835
tp6836
Rp6837
g1
(g5
S'd%\xa5\xba'
p6838
tp6839
Rp6840
g1
(g5
S'\x04\x00k\xba'
p6841
tp6842
Rp6843
g1
(g5
S'3q\x99\xb9'
p6844
tp6845
Rp6846
g1
(g5
S'\x84\xaf\x85\xba'
p6847
tp6848
Rp6849
g1
(g5
S'p\x1aY\xb9'
p6850
tp6851
Rp6852
g1
(g5
S'\xd7\x00;:'
p6853
tp6854
Rp6855
g1
(g5
S'\xac\x84\x1c9'
p6856
tp6857
Rp6858
g1
(g5
S'\x7f\xbfb\xb8'
p6859
tp6860
Rp6861
g1
(g5
S'\xd9\xc5-\xba'
p6862
tp6863
Rp6864
g1
(g5
S'\xc5`\xd6\xb8'
p6865
tp6866
Rp6867
g1
(g5
S'y\xcd\xe4\xb8'
p6868
tp6869
Rp6870
g1
(g5
S'E\xb9\xa1:'
p6871
tp6872
Rp6873
g1
(g5
S'c\x8c\x83\xb9'
p6874
tp6875
Rp6876
g1
(g5
S'\x0c\x1d*:'
p6877
tp6878
Rp6879
g1
(g5
S'\xef\xf6\xb49'
p6880
tp6881
Rp6882
g1
(g5
S'\xd1u\x9b:'
p6883
tp6884
Rp6885
g1
(g5
S'\xeb\xa6t\xb9'
p6886
tp6887
Rp6888
g1
(g5
S'm\xe9e\xb8'
p6889
tp6890
Rp6891
g1
(g5
S'2s\x8d\xba'
p6892
tp6893
Rp6894
g1
(g5
S'\xa9\xc2\x9f:'
p6895
tp6896
Rp6897
g1
(g5
S'\x8e\x12\x179'
p6898
tp6899
Rp6900
g1
(g5
S'\xb4\x15\x95\xba'
p6901
tp6902
Rp6903
g1
(g5
S'\xcd3\xca8'
p6904
tp6905
Rp6906
g1
(g5
S'p\x13/:'
p6907
tp6908
Rp6909
g1
(g5
S']\x10\x95\xba'
p6910
tp6911
Rp6912
g1
(g5
S'i\xddE\xb9'
p6913
tp6914
Rp6915
g1
(g5
S'YB\xc5:'
p6916
tp6917
Rp6918
g1
(g5
S'\xec(\xd9:'
p6919
tp6920
Rp6921
g1
(g5
S'e!5\xba'
p6922
tp6923
Rp6924
g1
(g5
S'<\xdd\xed8'
p6925
tp6926
Rp6927
g1
(g5
S'T"\xd09'
p6928
tp6929
Rp6930
g1
(g5
S'\xe0^\xdc:'
p6931
tp6932
Rp6933
g1
(g5
S'\x030\xd4\xba'
p6934
tp6935
Rp6936
g1
(g5
S'o\xdf\x8c\xba'
p6937
tp6938
Rp6939
g1
(g5
S'k\x18O:'
p6940
tp6941
Rp6942
g1
(g5
S'\xbc{\xb6:'
p6943
tp6944
Rp6945
g1
(g5
S'*\x1c\x97\xba'
p6946
tp6947
Rp6948
g1
(g5
S'\x08 b\xb9'
p6949
tp6950
Rp6951
tp6952
S'Klauba, how do I get to the atrium?'
p6953
s.